Archive member included to satisfy reference by file (symbol)

../build/nwy_open_stub.a(nwy_open.o)
                              (--whole-archive)
../build/nwy_open_stub.a(nwy_open_stub.o)
                              (--whole-archive)
../tools/GNU_Arm_Toolchain/arm-none-eabi/lib/thumb/v7/nofp/libc.a(lib_a-atoi.o)
                              CMakeFiles/nwy_open_app.dir/nwy_test_demo/nwy_test_cli/modules/nwy_test_cli_os.obj (atoi)
../tools/GNU_Arm_Toolchain/arm-none-eabi/lib/thumb/v7/nofp/libc.a(lib_a-atol.o)
                              CMakeFiles/nwy_open_app.dir/nwy_test_demo/nwy_test_cli/modules/nwy_test_cli_os.obj (atol)
../tools/GNU_Arm_Toolchain/arm-none-eabi/lib/thumb/v7/nofp/libc.a(lib_a-memcpy.o)
                              CMakeFiles/nwy_open_app.dir/nwy_test_demo/nwy_test_cli/comm/nwy_test_cli_utils.obj (memcpy)
../tools/GNU_Arm_Toolchain/arm-none-eabi/lib/thumb/v7/nofp/libc.a(lib_a-memset.o)
                              CMakeFiles/nwy_open_app.dir/nwy_test_demo/nwy_test_cli/comm/nwy_test_cli_utils.obj (memset)
../tools/GNU_Arm_Toolchain/arm-none-eabi/lib/thumb/v7/nofp/libc.a(lib_a-printf.o)
                              CMakeFiles/nwy_open_app.dir/nwy_test_demo/odt_vts_application/HTTP_Server/http.obj (printf)
../tools/GNU_Arm_Toolchain/arm-none-eabi/lib/thumb/v7/nofp/libc.a(lib_a-snprintf.o)
                              CMakeFiles/nwy_open_app.dir/nwy_test_demo/nwy_test_cli/modules/nwy_test_cli_os.obj (snprintf)
../tools/GNU_Arm_Toolchain/arm-none-eabi/lib/thumb/v7/nofp/libc.a(lib_a-sprintf.o)
                              CMakeFiles/nwy_open_app.dir/nwy_test_demo/nwy_test_cli/comm/nwy_test_cli_adpt.obj (sprintf)
../tools/GNU_Arm_Toolchain/arm-none-eabi/lib/thumb/v7/nofp/libc.a(lib_a-sscanf.o)
                              CMakeFiles/nwy_open_app.dir/nwy_test_demo/nwy_test_cli/modules/nwy_test_cli_os.obj (sscanf)
../tools/GNU_Arm_Toolchain/arm-none-eabi/lib/thumb/v7/nofp/libc.a(lib_a-stdio.o)
                              ../tools/GNU_Arm_Toolchain/arm-none-eabi/lib/thumb/v7/nofp/libc.a(lib_a-sscanf.o) (__seofread)
../tools/GNU_Arm_Toolchain/arm-none-eabi/lib/thumb/v7/nofp/libc.a(lib_a-strcat.o)
                              CMakeFiles/nwy_open_app.dir/nwy_test_demo/nwy_test_cli/modules/nwy_test_cli_http.obj (strcat)
../tools/GNU_Arm_Toolchain/arm-none-eabi/lib/thumb/v7/nofp/libc.a(lib_a-strchr.o)
                              CMakeFiles/nwy_open_app.dir/nwy_test_demo/odt_vts_application/HTTP_Server/http.obj (strchr)
../tools/GNU_Arm_Toolchain/arm-none-eabi/lib/thumb/v7/nofp/libc.a(lib_a-strcmp.o)
                              CMakeFiles/nwy_open_app.dir/nwy_test_demo/nwy_test_cli/modules/nwy_test_cli_http.obj (strcmp)
../tools/GNU_Arm_Toolchain/arm-none-eabi/lib/thumb/v7/nofp/libc.a(lib_a-strcpy.o)
                              CMakeFiles/nwy_open_app.dir/nwy_test_demo/nwy_test_cli/modules/nwy_test_cli_http.obj (strcpy)
../tools/GNU_Arm_Toolchain/arm-none-eabi/lib/thumb/v7/nofp/libc.a(lib_a-strlen-stub.o)
                              CMakeFiles/nwy_open_app.dir/nwy_test_demo/nwy_test_cli/comm/nwy_test_cli_utils.obj (strlen)
../tools/GNU_Arm_Toolchain/arm-none-eabi/lib/thumb/v7/nofp/libc.a(lib_a-strncmp.o)
                              CMakeFiles/nwy_open_app.dir/nwy_test_demo/nwy_test_cli/comm/nwy_test_cli_adpt.obj (strncmp)
../tools/GNU_Arm_Toolchain/arm-none-eabi/lib/thumb/v7/nofp/libc.a(lib_a-strncpy.o)
                              CMakeFiles/nwy_open_app.dir/nwy_test_demo/nwy_test_cli/modules/nwy_test_cli_fota.obj (strncpy)
../tools/GNU_Arm_Toolchain/arm-none-eabi/lib/thumb/v7/nofp/libc.a(lib_a-strrchr.o)
                              CMakeFiles/nwy_open_app.dir/nwy_test_demo/nwy_test_cli/comm/nwy_test_cli_adpt.obj (strrchr)
../tools/GNU_Arm_Toolchain/arm-none-eabi/lib/thumb/v7/nofp/libc.a(lib_a-strstr.o)
                              CMakeFiles/nwy_open_app.dir/nwy_test_demo/odt_vts_application/HTTP_Server/http.obj (strstr)
../tools/GNU_Arm_Toolchain/arm-none-eabi/lib/thumb/v7/nofp/libc.a(lib_a-strtok.o)
                              CMakeFiles/nwy_open_app.dir/nwy_test_demo/nwy_test_cli/modules/nwy_test_cli_network.obj (strtok)
../tools/GNU_Arm_Toolchain/arm-none-eabi/lib/thumb/v7/nofp/libc.a(lib_a-strtok_r.o)
                              ../tools/GNU_Arm_Toolchain/arm-none-eabi/lib/thumb/v7/nofp/libc.a(lib_a-strtok.o) (__strtok_r)
../tools/GNU_Arm_Toolchain/arm-none-eabi/lib/thumb/v7/nofp/libc.a(lib_a-strtol.o)
                              ../tools/GNU_Arm_Toolchain/arm-none-eabi/lib/thumb/v7/nofp/libc.a(lib_a-atoi.o) (_strtol_r)
../tools/GNU_Arm_Toolchain/arm-none-eabi/lib/thumb/v7/nofp/libc.a(lib_a-svfprintf.o)
                              ../tools/GNU_Arm_Toolchain/arm-none-eabi/lib/thumb/v7/nofp/libc.a(lib_a-snprintf.o) (_svfprintf_r)
../tools/GNU_Arm_Toolchain/arm-none-eabi/lib/thumb/v7/nofp/libc.a(lib_a-svfscanf.o)
                              ../tools/GNU_Arm_Toolchain/arm-none-eabi/lib/thumb/v7/nofp/libc.a(lib_a-sscanf.o) (__ssvfscanf_r)
../tools/GNU_Arm_Toolchain/arm-none-eabi/lib/thumb/v7/nofp/libc.a(lib_a-vfprintf.o)
                              ../tools/GNU_Arm_Toolchain/arm-none-eabi/lib/thumb/v7/nofp/libc.a(lib_a-printf.o) (_vfprintf_r)
../tools/GNU_Arm_Toolchain/arm-none-eabi/lib/thumb/v7/nofp/libc.a(lib_a-vsnprintf.o)
                              CMakeFiles/nwy_open_app.dir/nwy_test_demo/nwy_test_cli/comm/nwy_test_cli_utils.obj (vsnprintf)
../tools/GNU_Arm_Toolchain/arm-none-eabi/lib/thumb/v7/nofp/libc.a(lib_a-vsprintf.o)
                              CMakeFiles/nwy_open_app.dir/nwy_test_demo/nwy_test_cli/comm/nwy_test_cli_utils.obj (vsprintf)
../tools/GNU_Arm_Toolchain/arm-none-eabi/lib/thumb/v7/nofp/libc.a(lib_a-writer.o)
                              ../tools/GNU_Arm_Toolchain/arm-none-eabi/lib/thumb/v7/nofp/libc.a(lib_a-stdio.o) (_write_r)
../tools/GNU_Arm_Toolchain/arm-none-eabi/lib/thumb/v7/nofp/libc.a(lib_a-wsetup.o)
                              ../tools/GNU_Arm_Toolchain/arm-none-eabi/lib/thumb/v7/nofp/libc.a(lib_a-vfprintf.o) (__swsetup_r)
../tools/GNU_Arm_Toolchain/arm-none-eabi/lib/thumb/v7/nofp/libc.a(lib_a-closer.o)
                              ../tools/GNU_Arm_Toolchain/arm-none-eabi/lib/thumb/v7/nofp/libc.a(lib_a-stdio.o) (_close_r)
../tools/GNU_Arm_Toolchain/arm-none-eabi/lib/thumb/v7/nofp/libc.a(lib_a-ctype_.o)
                              ../tools/GNU_Arm_Toolchain/arm-none-eabi/lib/thumb/v7/nofp/libc.a(lib_a-strtol.o) (_ctype_)
../tools/GNU_Arm_Toolchain/arm-none-eabi/lib/thumb/v7/nofp/libc.a(lib_a-dtoa.o)
                              ../tools/GNU_Arm_Toolchain/arm-none-eabi/lib/thumb/v7/nofp/libc.a(lib_a-svfprintf.o) (_dtoa_r)
../tools/GNU_Arm_Toolchain/arm-none-eabi/lib/thumb/v7/nofp/libc.a(lib_a-errno.o)
                              ../tools/GNU_Arm_Toolchain/arm-none-eabi/lib/thumb/v7/nofp/libc.a(lib_a-strtol.o) (__errno)
../tools/GNU_Arm_Toolchain/arm-none-eabi/lib/thumb/v7/nofp/libc.a(lib_a-fflush.o)
                              ../tools/GNU_Arm_Toolchain/arm-none-eabi/lib/thumb/v7/nofp/libc.a(lib_a-vfprintf.o) (_fflush_r)
../tools/GNU_Arm_Toolchain/arm-none-eabi/lib/thumb/v7/nofp/libc.a(lib_a-findfp.o)
                              ../tools/GNU_Arm_Toolchain/arm-none-eabi/lib/thumb/v7/nofp/libc.a(lib_a-vfprintf.o) (__sinit)
../tools/GNU_Arm_Toolchain/arm-none-eabi/lib/thumb/v7/nofp/libc.a(lib_a-freer.o)
                              ../tools/GNU_Arm_Toolchain/arm-none-eabi/lib/thumb/v7/nofp/libc.a(lib_a-svfprintf.o) (_free_r)
../tools/GNU_Arm_Toolchain/arm-none-eabi/lib/thumb/v7/nofp/libc.a(lib_a-fwalk.o)
                              ../tools/GNU_Arm_Toolchain/arm-none-eabi/lib/thumb/v7/nofp/libc.a(lib_a-findfp.o) (_fwalk)
../tools/GNU_Arm_Toolchain/arm-none-eabi/lib/thumb/v7/nofp/libc.a(lib_a-impure.o)
                              ../tools/GNU_Arm_Toolchain/arm-none-eabi/lib/thumb/v7/nofp/libc.a(lib_a-fflush.o) (_global_impure_ptr)
../tools/GNU_Arm_Toolchain/arm-none-eabi/lib/thumb/v7/nofp/libc.a(lib_a-iswspace.o)
                              ../tools/GNU_Arm_Toolchain/arm-none-eabi/lib/thumb/v7/nofp/libc.a(lib_a-svfscanf.o) (iswspace)
../tools/GNU_Arm_Toolchain/arm-none-eabi/lib/thumb/v7/nofp/libc.a(lib_a-iswspace_l.o)
                              ../tools/GNU_Arm_Toolchain/arm-none-eabi/lib/thumb/v7/nofp/libc.a(lib_a-iswspace.o) (iswspace_l)
../tools/GNU_Arm_Toolchain/arm-none-eabi/lib/thumb/v7/nofp/libc.a(lib_a-locale.o)
                              ../tools/GNU_Arm_Toolchain/arm-none-eabi/lib/thumb/v7/nofp/libc.a(lib_a-svfscanf.o) (__locale_mb_cur_max)
../tools/GNU_Arm_Toolchain/arm-none-eabi/lib/thumb/v7/nofp/libc.a(lib_a-localeconv.o)
                              ../tools/GNU_Arm_Toolchain/arm-none-eabi/lib/thumb/v7/nofp/libc.a(lib_a-svfprintf.o) (_localeconv_r)
../tools/GNU_Arm_Toolchain/arm-none-eabi/lib/thumb/v7/nofp/libc.a(lib_a-lock.o)
                              ../tools/GNU_Arm_Toolchain/arm-none-eabi/lib/thumb/v7/nofp/libc.a(lib_a-vfprintf.o) (__retarget_lock_init_recursive)
../tools/GNU_Arm_Toolchain/arm-none-eabi/lib/thumb/v7/nofp/libc.a(lib_a-lseekr.o)
                              ../tools/GNU_Arm_Toolchain/arm-none-eabi/lib/thumb/v7/nofp/libc.a(lib_a-stdio.o) (_lseek_r)
../tools/GNU_Arm_Toolchain/arm-none-eabi/lib/thumb/v7/nofp/libc.a(lib_a-makebuf.o)
                              ../tools/GNU_Arm_Toolchain/arm-none-eabi/lib/thumb/v7/nofp/libc.a(lib_a-wsetup.o) (__smakebuf_r)
../tools/GNU_Arm_Toolchain/arm-none-eabi/lib/thumb/v7/nofp/libc.a(lib_a-mallocr.o)
                              ../tools/GNU_Arm_Toolchain/arm-none-eabi/lib/thumb/v7/nofp/libc.a(lib_a-svfprintf.o) (_malloc_r)
../tools/GNU_Arm_Toolchain/arm-none-eabi/lib/thumb/v7/nofp/libc.a(lib_a-mbrtowc.o)
                              ../tools/GNU_Arm_Toolchain/arm-none-eabi/lib/thumb/v7/nofp/libc.a(lib_a-svfscanf.o) (_mbrtowc_r)
../tools/GNU_Arm_Toolchain/arm-none-eabi/lib/thumb/v7/nofp/libc.a(lib_a-mbtowc_r.o)
                              ../tools/GNU_Arm_Toolchain/arm-none-eabi/lib/thumb/v7/nofp/libc.a(lib_a-locale.o) (__ascii_mbtowc)
../tools/GNU_Arm_Toolchain/arm-none-eabi/lib/thumb/v7/nofp/libc.a(lib_a-memchr-stub.o)
                              ../tools/GNU_Arm_Toolchain/arm-none-eabi/lib/thumb/v7/nofp/libc.a(lib_a-svfprintf.o) (memchr)
../tools/GNU_Arm_Toolchain/arm-none-eabi/lib/thumb/v7/nofp/libc.a(lib_a-memcmp.o)
                              ../tools/GNU_Arm_Toolchain/arm-none-eabi/lib/thumb/v7/nofp/libc.a(lib_a-strstr.o) (memcmp)
../tools/GNU_Arm_Toolchain/arm-none-eabi/lib/thumb/v7/nofp/libc.a(lib_a-mlock.o)
                              ../tools/GNU_Arm_Toolchain/arm-none-eabi/lib/thumb/v7/nofp/libc.a(lib_a-freer.o) (__malloc_lock)
../tools/GNU_Arm_Toolchain/arm-none-eabi/lib/thumb/v7/nofp/libc.a(lib_a-mprec.o)
                              ../tools/GNU_Arm_Toolchain/arm-none-eabi/lib/thumb/v7/nofp/libc.a(lib_a-dtoa.o) (_Balloc)
../tools/GNU_Arm_Toolchain/arm-none-eabi/lib/thumb/v7/nofp/libc.a(lib_a-readr.o)
                              ../tools/GNU_Arm_Toolchain/arm-none-eabi/lib/thumb/v7/nofp/libc.a(lib_a-stdio.o) (_read_r)
../tools/GNU_Arm_Toolchain/arm-none-eabi/lib/thumb/v7/nofp/libc.a(lib_a-reent.o)
                              ../tools/GNU_Arm_Toolchain/arm-none-eabi/lib/thumb/v7/nofp/libc.a(lib_a-writer.o) (errno)
../tools/GNU_Arm_Toolchain/arm-none-eabi/lib/thumb/v7/nofp/libc.a(lib_a-s_frexp.o)
                              ../tools/GNU_Arm_Toolchain/arm-none-eabi/lib/thumb/v7/nofp/libc.a(lib_a-svfprintf.o) (frexp)
../tools/GNU_Arm_Toolchain/arm-none-eabi/lib/thumb/v7/nofp/libc.a(lib_a-sbrkr.o)
                              ../tools/GNU_Arm_Toolchain/arm-none-eabi/lib/thumb/v7/nofp/libc.a(lib_a-freer.o) (_sbrk_r)
../tools/GNU_Arm_Toolchain/arm-none-eabi/lib/thumb/v7/nofp/libc.a(lib_a-sccl.o)
                              ../tools/GNU_Arm_Toolchain/arm-none-eabi/lib/thumb/v7/nofp/libc.a(lib_a-svfscanf.o) (__sccl)
../tools/GNU_Arm_Toolchain/arm-none-eabi/lib/thumb/v7/nofp/libc.a(lib_a-sf_nan.o)
                              ../tools/GNU_Arm_Toolchain/arm-none-eabi/lib/thumb/v7/nofp/libc.a(lib_a-svfscanf.o) (nanf)
../tools/GNU_Arm_Toolchain/arm-none-eabi/lib/thumb/v7/nofp/libc.a(lib_a-strnlen.o)
                              ../tools/GNU_Arm_Toolchain/arm-none-eabi/lib/thumb/v7/nofp/libc.a(lib_a-strstr.o) (strnlen)
../tools/GNU_Arm_Toolchain/arm-none-eabi/lib/thumb/v7/nofp/libc.a(lib_a-strtod.o)
                              ../tools/GNU_Arm_Toolchain/arm-none-eabi/lib/thumb/v7/nofp/libc.a(lib_a-svfscanf.o) (_strtod_r)
../tools/GNU_Arm_Toolchain/arm-none-eabi/lib/thumb/v7/nofp/libc.a(lib_a-strtoll.o)
                              ../tools/GNU_Arm_Toolchain/arm-none-eabi/lib/thumb/v7/nofp/libc.a(lib_a-svfscanf.o) (_strtoll_r)
../tools/GNU_Arm_Toolchain/arm-none-eabi/lib/thumb/v7/nofp/libc.a(lib_a-strtoul.o)
                              ../tools/GNU_Arm_Toolchain/arm-none-eabi/lib/thumb/v7/nofp/libc.a(lib_a-svfscanf.o) (_strtoul_r)
../tools/GNU_Arm_Toolchain/arm-none-eabi/lib/thumb/v7/nofp/libc.a(lib_a-strtoull.o)
                              ../tools/GNU_Arm_Toolchain/arm-none-eabi/lib/thumb/v7/nofp/libc.a(lib_a-svfscanf.o) (_strtoull_r)
../tools/GNU_Arm_Toolchain/arm-none-eabi/lib/thumb/v7/nofp/libc.a(lib_a-svfiprintf.o)
                              ../tools/GNU_Arm_Toolchain/arm-none-eabi/lib/thumb/v7/nofp/libc.a(lib_a-svfprintf.o) (__ssprint_r)
../tools/GNU_Arm_Toolchain/arm-none-eabi/lib/thumb/v7/nofp/libc.a(lib_a-svfiscanf.o)
                              ../tools/GNU_Arm_Toolchain/arm-none-eabi/lib/thumb/v7/nofp/libc.a(lib_a-svfscanf.o) (_sungetc_r)
../tools/GNU_Arm_Toolchain/arm-none-eabi/lib/thumb/v7/nofp/libc.a(lib_a-ungetc.o)
                              ../tools/GNU_Arm_Toolchain/arm-none-eabi/lib/thumb/v7/nofp/libc.a(lib_a-svfiscanf.o) (__submore)
../tools/GNU_Arm_Toolchain/arm-none-eabi/lib/thumb/v7/nofp/libc.a(lib_a-vfiprintf.o)
                              ../tools/GNU_Arm_Toolchain/arm-none-eabi/lib/thumb/v7/nofp/libc.a(lib_a-vfprintf.o) (__sprint_r)
../tools/GNU_Arm_Toolchain/arm-none-eabi/lib/thumb/v7/nofp/libc.a(lib_a-wctomb_r.o)
                              ../tools/GNU_Arm_Toolchain/arm-none-eabi/lib/thumb/v7/nofp/libc.a(lib_a-locale.o) (__ascii_wctomb)
../tools/GNU_Arm_Toolchain/arm-none-eabi/lib/thumb/v7/nofp/libc.a(lib_a-assert.o)
                              ../tools/GNU_Arm_Toolchain/arm-none-eabi/lib/thumb/v7/nofp/libc.a(lib_a-dtoa.o) (__assert_func)
../tools/GNU_Arm_Toolchain/arm-none-eabi/lib/thumb/v7/nofp/libc.a(lib_a-callocr.o)
                              ../tools/GNU_Arm_Toolchain/arm-none-eabi/lib/thumb/v7/nofp/libc.a(lib_a-mprec.o) (_calloc_r)
../tools/GNU_Arm_Toolchain/arm-none-eabi/lib/thumb/v7/nofp/libc.a(lib_a-fclose.o)
                              ../tools/GNU_Arm_Toolchain/arm-none-eabi/lib/thumb/v7/nofp/libc.a(lib_a-findfp.o) (_fclose_r)
../tools/GNU_Arm_Toolchain/arm-none-eabi/lib/thumb/v7/nofp/libc.a(lib_a-fiprintf.o)
                              ../tools/GNU_Arm_Toolchain/arm-none-eabi/lib/thumb/v7/nofp/libc.a(lib_a-assert.o) (fiprintf)
../tools/GNU_Arm_Toolchain/arm-none-eabi/lib/thumb/v7/nofp/libc.a(lib_a-fputwc.o)
                              ../tools/GNU_Arm_Toolchain/arm-none-eabi/lib/thumb/v7/nofp/libc.a(lib_a-vfiprintf.o) (_fputwc_r)
../tools/GNU_Arm_Toolchain/arm-none-eabi/lib/thumb/v7/nofp/libc.a(lib_a-fstatr.o)
                              ../tools/GNU_Arm_Toolchain/arm-none-eabi/lib/thumb/v7/nofp/libc.a(lib_a-makebuf.o) (_fstat_r)
../tools/GNU_Arm_Toolchain/arm-none-eabi/lib/thumb/v7/nofp/libc.a(lib_a-fvwrite.o)
                              ../tools/GNU_Arm_Toolchain/arm-none-eabi/lib/thumb/v7/nofp/libc.a(lib_a-vfiprintf.o) (__sfvwrite_r)
../tools/GNU_Arm_Toolchain/arm-none-eabi/lib/thumb/v7/nofp/libc.a(lib_a-gdtoa-gethex.o)
                              ../tools/GNU_Arm_Toolchain/arm-none-eabi/lib/thumb/v7/nofp/libc.a(lib_a-strtod.o) (__gethex)
../tools/GNU_Arm_Toolchain/arm-none-eabi/lib/thumb/v7/nofp/libc.a(lib_a-gdtoa-hexnan.o)
                              ../tools/GNU_Arm_Toolchain/arm-none-eabi/lib/thumb/v7/nofp/libc.a(lib_a-strtod.o) (__match)
../tools/GNU_Arm_Toolchain/arm-none-eabi/lib/thumb/v7/nofp/libc.a(lib_a-isattyr.o)
                              ../tools/GNU_Arm_Toolchain/arm-none-eabi/lib/thumb/v7/nofp/libc.a(lib_a-makebuf.o) (_isatty_r)
../tools/GNU_Arm_Toolchain/arm-none-eabi/lib/thumb/v7/nofp/libc.a(lib_a-lnumeric.o)
                              ../tools/GNU_Arm_Toolchain/arm-none-eabi/lib/thumb/v7/nofp/libc.a(lib_a-strtod.o) (_C_numeric_locale)
../tools/GNU_Arm_Toolchain/arm-none-eabi/lib/thumb/v7/nofp/libc.a(lib_a-memmove.o)
                              ../tools/GNU_Arm_Toolchain/arm-none-eabi/lib/thumb/v7/nofp/libc.a(lib_a-svfiprintf.o) (memmove)
../tools/GNU_Arm_Toolchain/arm-none-eabi/lib/thumb/v7/nofp/libc.a(lib_a-reallocr.o)
                              ../tools/GNU_Arm_Toolchain/arm-none-eabi/lib/thumb/v7/nofp/libc.a(lib_a-svfiprintf.o) (_realloc_r)
../tools/GNU_Arm_Toolchain/arm-none-eabi/lib/thumb/v7/nofp/libc.a(lib_a-s_nan.o)
                              ../tools/GNU_Arm_Toolchain/arm-none-eabi/lib/thumb/v7/nofp/libc.a(lib_a-strtod.o) (nan)
../tools/GNU_Arm_Toolchain/arm-none-eabi/lib/thumb/v7/nofp/libc.a(lib_a-wbuf.o)
                              ../tools/GNU_Arm_Toolchain/arm-none-eabi/lib/thumb/v7/nofp/libc.a(lib_a-fputwc.o) (__swbuf_r)
../tools/GNU_Arm_Toolchain/arm-none-eabi/lib/thumb/v7/nofp/libc.a(lib_a-wcrtomb.o)
                              ../tools/GNU_Arm_Toolchain/arm-none-eabi/lib/thumb/v7/nofp/libc.a(lib_a-fputwc.o) (_wcrtomb_r)
../tools/GNU_Arm_Toolchain/arm-none-eabi/lib/thumb/v7/nofp/libc.a(lib_a-abort.o)
                              ../tools/GNU_Arm_Toolchain/arm-none-eabi/lib/thumb/v7/nofp/libc.a(lib_a-assert.o) (abort)
../tools/GNU_Arm_Toolchain/arm-none-eabi/lib/thumb/v7/nofp/libc.a(lib_a-signal.o)
                              ../tools/GNU_Arm_Toolchain/arm-none-eabi/lib/thumb/v7/nofp/libc.a(lib_a-abort.o) (raise)
../tools/GNU_Arm_Toolchain/arm-none-eabi/lib/thumb/v7/nofp/libc.a(lib_a-signalr.o)
                              ../tools/GNU_Arm_Toolchain/arm-none-eabi/lib/thumb/v7/nofp/libc.a(lib_a-signal.o) (_kill_r)
../tools/GNU_Arm_Toolchain/arm-none-eabi/lib/thumb/v7/nofp/libnosys.a(close.o)
                              ../tools/GNU_Arm_Toolchain/arm-none-eabi/lib/thumb/v7/nofp/libc.a(lib_a-closer.o) (_close)
../tools/GNU_Arm_Toolchain/arm-none-eabi/lib/thumb/v7/nofp/libnosys.a(fstat.o)
                              ../tools/GNU_Arm_Toolchain/arm-none-eabi/lib/thumb/v7/nofp/libc.a(lib_a-fstatr.o) (_fstat)
../tools/GNU_Arm_Toolchain/arm-none-eabi/lib/thumb/v7/nofp/libnosys.a(getpid.o)
                              ../tools/GNU_Arm_Toolchain/arm-none-eabi/lib/thumb/v7/nofp/libc.a(lib_a-signalr.o) (_getpid)
../tools/GNU_Arm_Toolchain/arm-none-eabi/lib/thumb/v7/nofp/libnosys.a(isatty.o)
                              ../tools/GNU_Arm_Toolchain/arm-none-eabi/lib/thumb/v7/nofp/libc.a(lib_a-isattyr.o) (_isatty)
../tools/GNU_Arm_Toolchain/arm-none-eabi/lib/thumb/v7/nofp/libnosys.a(kill.o)
                              ../tools/GNU_Arm_Toolchain/arm-none-eabi/lib/thumb/v7/nofp/libc.a(lib_a-signalr.o) (_kill)
../tools/GNU_Arm_Toolchain/arm-none-eabi/lib/thumb/v7/nofp/libnosys.a(lseek.o)
                              ../tools/GNU_Arm_Toolchain/arm-none-eabi/lib/thumb/v7/nofp/libc.a(lib_a-lseekr.o) (_lseek)
../tools/GNU_Arm_Toolchain/arm-none-eabi/lib/thumb/v7/nofp/libnosys.a(read.o)
                              ../tools/GNU_Arm_Toolchain/arm-none-eabi/lib/thumb/v7/nofp/libc.a(lib_a-readr.o) (_read)
../tools/GNU_Arm_Toolchain/arm-none-eabi/lib/thumb/v7/nofp/libnosys.a(sbrk.o)
                              ../tools/GNU_Arm_Toolchain/arm-none-eabi/lib/thumb/v7/nofp/libc.a(lib_a-sbrkr.o) (_sbrk)
../tools/GNU_Arm_Toolchain/arm-none-eabi/lib/thumb/v7/nofp/libnosys.a(write.o)
                              ../tools/GNU_Arm_Toolchain/arm-none-eabi/lib/thumb/v7/nofp/libc.a(lib_a-writer.o) (_write)
../tools/GNU_Arm_Toolchain/arm-none-eabi/lib/thumb/v7/nofp/libnosys.a(_exit.o)
                              ../tools/GNU_Arm_Toolchain/arm-none-eabi/lib/thumb/v7/nofp/libc.a(lib_a-abort.o) (_exit)
../tools/GNU_Arm_Toolchain/lib/gcc/arm-none-eabi/10.3.1/thumb/v7/nofp/libgcc.a(_arm_muldf3.o)
                              CMakeFiles/nwy_open_app.dir/nwy_test_demo/odt_vts_application/VTS_Application/VTS_App.obj (__aeabi_dmul)
../tools/GNU_Arm_Toolchain/lib/gcc/arm-none-eabi/10.3.1/thumb/v7/nofp/libgcc.a(_udivsi3.o)
                              ../tools/GNU_Arm_Toolchain/arm-none-eabi/lib/thumb/v7/nofp/libc.a(lib_a-dtoa.o) (__aeabi_uidiv)
../tools/GNU_Arm_Toolchain/lib/gcc/arm-none-eabi/10.3.1/thumb/v7/nofp/libgcc.a(_divsi3.o)
                              ../tools/GNU_Arm_Toolchain/arm-none-eabi/lib/thumb/v7/nofp/libc.a(lib_a-fvwrite.o) (__aeabi_idiv)
../tools/GNU_Arm_Toolchain/lib/gcc/arm-none-eabi/10.3.1/thumb/v7/nofp/libgcc.a(_dvmd_tls.o)
                              ../tools/GNU_Arm_Toolchain/lib/gcc/arm-none-eabi/10.3.1/thumb/v7/nofp/libgcc.a(_udivsi3.o) (__aeabi_idiv0)
../tools/GNU_Arm_Toolchain/lib/gcc/arm-none-eabi/10.3.1/thumb/v7/nofp/libgcc.a(_arm_addsubdf3.o)
                              ../tools/GNU_Arm_Toolchain/arm-none-eabi/lib/thumb/v7/nofp/libc.a(lib_a-svfprintf.o) (__aeabi_dsub)
../tools/GNU_Arm_Toolchain/lib/gcc/arm-none-eabi/10.3.1/thumb/v7/nofp/libgcc.a(_arm_muldivdf3.o)
                              ../tools/GNU_Arm_Toolchain/arm-none-eabi/lib/thumb/v7/nofp/libc.a(lib_a-dtoa.o) (__aeabi_ddiv)
../tools/GNU_Arm_Toolchain/lib/gcc/arm-none-eabi/10.3.1/thumb/v7/nofp/libgcc.a(_arm_cmpdf2.o)
                              ../tools/GNU_Arm_Toolchain/arm-none-eabi/lib/thumb/v7/nofp/libc.a(lib_a-svfprintf.o) (__aeabi_dcmpeq)
../tools/GNU_Arm_Toolchain/lib/gcc/arm-none-eabi/10.3.1/thumb/v7/nofp/libgcc.a(_arm_unorddf2.o)
                              ../tools/GNU_Arm_Toolchain/arm-none-eabi/lib/thumb/v7/nofp/libc.a(lib_a-svfprintf.o) (__aeabi_dcmpun)
../tools/GNU_Arm_Toolchain/lib/gcc/arm-none-eabi/10.3.1/thumb/v7/nofp/libgcc.a(_arm_fixdfsi.o)
                              ../tools/GNU_Arm_Toolchain/arm-none-eabi/lib/thumb/v7/nofp/libc.a(lib_a-svfprintf.o) (__aeabi_d2iz)
../tools/GNU_Arm_Toolchain/lib/gcc/arm-none-eabi/10.3.1/thumb/v7/nofp/libgcc.a(_arm_fixunsdfsi.o)
                              ../tools/GNU_Arm_Toolchain/arm-none-eabi/lib/thumb/v7/nofp/libc.a(lib_a-strtod.o) (__aeabi_d2uiz)
../tools/GNU_Arm_Toolchain/lib/gcc/arm-none-eabi/10.3.1/thumb/v7/nofp/libgcc.a(_arm_truncdfsf2.o)
                              CMakeFiles/nwy_open_app.dir/nwy_test_demo/odt_vts_application/VTS_Application/VTS_App.obj (__aeabi_d2f)
../tools/GNU_Arm_Toolchain/lib/gcc/arm-none-eabi/10.3.1/thumb/v7/nofp/libgcc.a(_arm_addsubsf3.o)
                              CMakeFiles/nwy_open_app.dir/nwy_test_demo/odt_vts_application/VTS_Application/VTS_App.obj (__aeabi_ui2f)
../tools/GNU_Arm_Toolchain/lib/gcc/arm-none-eabi/10.3.1/thumb/v7/nofp/libgcc.a(_arm_muldivsf3.o)
                              CMakeFiles/nwy_open_app.dir/nwy_test_demo/nwy_test_cli/modules/nwy_test_cli_os.obj (__aeabi_fdiv)
../tools/GNU_Arm_Toolchain/lib/gcc/arm-none-eabi/10.3.1/thumb/v7/nofp/libgcc.a(_arm_cmpsf2.o)
                              CMakeFiles/nwy_open_app.dir/nwy_test_demo/odt_vts_application/VTS_Application/VTS_App.obj (__aeabi_fcmpeq)
../tools/GNU_Arm_Toolchain/lib/gcc/arm-none-eabi/10.3.1/thumb/v7/nofp/libgcc.a(_arm_unordsf2.o)
                              ../tools/GNU_Arm_Toolchain/arm-none-eabi/lib/thumb/v7/nofp/libc.a(lib_a-strtod.o) (__aeabi_fcmpun)
../tools/GNU_Arm_Toolchain/lib/gcc/arm-none-eabi/10.3.1/thumb/v7/nofp/libgcc.a(_aeabi_uldivmod.o)
                              ../tools/GNU_Arm_Toolchain/arm-none-eabi/lib/thumb/v7/nofp/libc.a(lib_a-svfprintf.o) (__aeabi_uldivmod)
../tools/GNU_Arm_Toolchain/lib/gcc/arm-none-eabi/10.3.1/thumb/v7/nofp/libgcc.a(_fixdfdi.o)
                              ../tools/GNU_Arm_Toolchain/arm-none-eabi/lib/thumb/v7/nofp/libc.a(lib_a-strtod.o) (__aeabi_d2lz)
../tools/GNU_Arm_Toolchain/lib/gcc/arm-none-eabi/10.3.1/thumb/v7/nofp/libgcc.a(_fixunsdfdi.o)
                              ../tools/GNU_Arm_Toolchain/lib/gcc/arm-none-eabi/10.3.1/thumb/v7/nofp/libgcc.a(_fixdfdi.o) (__aeabi_d2ulz)
../tools/GNU_Arm_Toolchain/lib/gcc/arm-none-eabi/10.3.1/thumb/v7/nofp/libgcc.a(_udivmoddi4.o)
                              ../tools/GNU_Arm_Toolchain/lib/gcc/arm-none-eabi/10.3.1/thumb/v7/nofp/libgcc.a(_aeabi_uldivmod.o) (__udivmoddi4)

Discarded input sections

 .text          0x00000000        0x0 CMakeFiles/nwy_open_app.dir/nwy_test_demo/nwy_test_cli/comm/nwy_test_cli_utils.obj
 .data          0x00000000        0x0 CMakeFiles/nwy_open_app.dir/nwy_test_demo/nwy_test_cli/comm/nwy_test_cli_utils.obj
 .bss           0x00000000        0x0 CMakeFiles/nwy_open_app.dir/nwy_test_demo/nwy_test_cli/comm/nwy_test_cli_utils.obj
 .rodata.nwy_cli_data_trans_proc.str1.1
                0x00000000       0x54 CMakeFiles/nwy_open_app.dir/nwy_test_demo/nwy_test_cli/comm/nwy_test_cli_utils.obj
 .text.nwy_cli_data_trans_proc
                0x00000000       0x64 CMakeFiles/nwy_open_app.dir/nwy_test_demo/nwy_test_cli/comm/nwy_test_cli_utils.obj
 .text.nwy_test_cli_input_gets
                0x00000000       0x3c CMakeFiles/nwy_open_app.dir/nwy_test_demo/nwy_test_cli/comm/nwy_test_cli_utils.obj
 .text.nwy_test_cli_input_len_gets
                0x00000000        0xc CMakeFiles/nwy_open_app.dir/nwy_test_demo/nwy_test_cli/comm/nwy_test_cli_utils.obj
 .rodata.nwy_test_cli_sio_data_proc.str1.1
                0x00000000       0xb1 CMakeFiles/nwy_open_app.dir/nwy_test_demo/nwy_test_cli/comm/nwy_test_cli_utils.obj
 .text.nwy_test_cli_sio_data_proc
                0x00000000      0x1b8 CMakeFiles/nwy_open_app.dir/nwy_test_demo/nwy_test_cli/comm/nwy_test_cli_utils.obj
 .text.nwy_test_cli_sio_enter_trans_mode
                0x00000000       0x24 CMakeFiles/nwy_open_app.dir/nwy_test_demo/nwy_test_cli/comm/nwy_test_cli_utils.obj
 .text.nwy_test_cli_sio_quit_trans_mode
                0x00000000        0xc CMakeFiles/nwy_open_app.dir/nwy_test_demo/nwy_test_cli/comm/nwy_test_cli_utils.obj
 .rodata.nwy_cli_get_trans_data.str1.1
                0x00000000       0x14 CMakeFiles/nwy_open_app.dir/nwy_test_demo/nwy_test_cli/comm/nwy_test_cli_utils.obj
 .text.nwy_cli_get_trans_data
                0x00000000       0x48 CMakeFiles/nwy_open_app.dir/nwy_test_demo/nwy_test_cli/comm/nwy_test_cli_utils.obj
 .text.nwy_cli_str_to_int
                0x00000000       0x2a CMakeFiles/nwy_open_app.dir/nwy_test_demo/nwy_test_cli/comm/nwy_test_cli_utils.obj
 .bss.echo_str.3
                0x00000000      0x800 CMakeFiles/nwy_open_app.dir/nwy_test_demo/nwy_test_cli/comm/nwy_test_cli_utils.obj
 .bss.len.2     0x00000000        0x4 CMakeFiles/nwy_open_app.dir/nwy_test_demo/nwy_test_cli/comm/nwy_test_cli_utils.obj
 .bss.nwy_cli_opt_input_buff
                0x00000000      0x800 CMakeFiles/nwy_open_app.dir/nwy_test_demo/nwy_test_cli/comm/nwy_test_cli_utils.obj
 .bss.nwy_ext_sio_len
                0x00000000        0x4 CMakeFiles/nwy_open_app.dir/nwy_test_demo/nwy_test_cli/comm/nwy_test_cli_utils.obj
 .bss.nwy_sio_mode
                0x00000000        0x1 CMakeFiles/nwy_open_app.dir/nwy_test_demo/nwy_test_cli/comm/nwy_test_cli_utils.obj
 .bss.nwy_test_cli_trans_func
                0x00000000        0x4 CMakeFiles/nwy_open_app.dir/nwy_test_demo/nwy_test_cli/comm/nwy_test_cli_utils.obj
 .bss.s_nwy_trans_recv
                0x00000000        0xc CMakeFiles/nwy_open_app.dir/nwy_test_demo/nwy_test_cli/comm/nwy_test_cli_utils.obj
 .rodata.__func__.0
                0x00000000       0x18 CMakeFiles/nwy_open_app.dir/nwy_test_demo/nwy_test_cli/comm/nwy_test_cli_utils.obj
 .rodata.__func__.1
                0x00000000       0x1b CMakeFiles/nwy_open_app.dir/nwy_test_demo/nwy_test_cli/comm/nwy_test_cli_utils.obj
 .text          0x00000000        0x0 CMakeFiles/nwy_open_app.dir/nwy_test_demo/nwy_test_cli/comm/nwy_test_cli_adpt.obj
 .data          0x00000000        0x0 CMakeFiles/nwy_open_app.dir/nwy_test_demo/nwy_test_cli/comm/nwy_test_cli_adpt.obj
 .bss           0x00000000        0x0 CMakeFiles/nwy_open_app.dir/nwy_test_demo/nwy_test_cli/comm/nwy_test_cli_adpt.obj
 .text.nwy_test_cli_wait_select
                0x00000000       0x30 CMakeFiles/nwy_open_app.dir/nwy_test_demo/nwy_test_cli/comm/nwy_test_cli_adpt.obj
 .text.nwy_test_cli_select_enter
                0x00000000       0x2c CMakeFiles/nwy_open_app.dir/nwy_test_demo/nwy_test_cli/comm/nwy_test_cli_adpt.obj
 .text.nwy_test_cli_send_trans_end
                0x00000000       0x2c CMakeFiles/nwy_open_app.dir/nwy_test_demo/nwy_test_cli/comm/nwy_test_cli_adpt.obj
 .text.nwy_test_cli_wait_trans_end
                0x00000000       0x30 CMakeFiles/nwy_open_app.dir/nwy_test_demo/nwy_test_cli/comm/nwy_test_cli_adpt.obj
 .rodata.nwy_test_cli_get_version.str1.1
                0x00000000       0x47 CMakeFiles/nwy_open_app.dir/nwy_test_demo/nwy_test_cli/comm/nwy_test_cli_adpt.obj
 .text.nwy_test_cli_get_version
                0x00000000       0x54 CMakeFiles/nwy_open_app.dir/nwy_test_demo/nwy_test_cli/comm/nwy_test_cli_adpt.obj
 .text.compare_version_prefix
                0x00000000       0x36 CMakeFiles/nwy_open_app.dir/nwy_test_demo/nwy_test_cli/comm/nwy_test_cli_adpt.obj
 .rodata.nwy_opensdk_version_check.str1.1
                0x00000000       0x98 CMakeFiles/nwy_open_app.dir/nwy_test_demo/nwy_test_cli/comm/nwy_test_cli_adpt.obj
 .text.nwy_opensdk_version_check
                0x00000000       0x74 CMakeFiles/nwy_open_app.dir/nwy_test_demo/nwy_test_cli/comm/nwy_test_cli_adpt.obj
 .rodata.appimg_exit.str1.1
                0x00000000       0x17 CMakeFiles/nwy_open_app.dir/nwy_test_demo/nwy_test_cli/comm/nwy_test_cli_adpt.obj
 .text.appimg_exit
                0x00000000       0x14 CMakeFiles/nwy_open_app.dir/nwy_test_demo/nwy_test_cli/comm/nwy_test_cli_adpt.obj
 .text.nwy_test_cli_check_uart_mode
                0x00000000        0x4 CMakeFiles/nwy_open_app.dir/nwy_test_demo/nwy_test_cli/comm/nwy_test_cli_adpt.obj
 .rodata._gpioisropen.str1.1
                0x00000000       0x19 CMakeFiles/nwy_open_app.dir/nwy_test_demo/nwy_test_cli/comm/nwy_test_cli_adpt.obj
 .text._gpioisropen
                0x00000000       0x14 CMakeFiles/nwy_open_app.dir/nwy_test_demo/nwy_test_cli/comm/nwy_test_cli_adpt.obj
 .rodata.__func__.0
                0x00000000        0xd CMakeFiles/nwy_open_app.dir/nwy_test_demo/nwy_test_cli/comm/nwy_test_cli_adpt.obj
 .rodata.__func__.1
                0x00000000        0xc CMakeFiles/nwy_open_app.dir/nwy_test_demo/nwy_test_cli/comm/nwy_test_cli_adpt.obj
 .rodata.__func__.3
                0x00000000       0x1a CMakeFiles/nwy_open_app.dir/nwy_test_demo/nwy_test_cli/comm/nwy_test_cli_adpt.obj
 .rodata.__func__.4
                0x00000000       0x19 CMakeFiles/nwy_open_app.dir/nwy_test_demo/nwy_test_cli/comm/nwy_test_cli_adpt.obj
 .text          0x00000000        0x0 CMakeFiles/nwy_open_app.dir/nwy_test_demo/nwy_test_cli/modules/nwy_test_cli_os.obj
 .data          0x00000000        0x0 CMakeFiles/nwy_open_app.dir/nwy_test_demo/nwy_test_cli/modules/nwy_test_cli_os.obj
 .bss           0x00000000        0x0 CMakeFiles/nwy_open_app.dir/nwy_test_demo/nwy_test_cli/modules/nwy_test_cli_os.obj
 .text.nwy_test_cli_isr_timer_cb
                0x00000000       0x10 CMakeFiles/nwy_open_app.dir/nwy_test_demo/nwy_test_cli/modules/nwy_test_cli_os.obj
 .text.nwy_test_cli_timer_cb
                0x00000000       0x10 CMakeFiles/nwy_open_app.dir/nwy_test_demo/nwy_test_cli/modules/nwy_test_cli_os.obj
 .rodata.nwy_cli_unsol_at_cb.str1.1
                0x00000000       0x20 CMakeFiles/nwy_open_app.dir/nwy_test_demo/nwy_test_cli/modules/nwy_test_cli_os.obj
 .text.nwy_cli_unsol_at_cb
                0x00000000        0xc CMakeFiles/nwy_open_app.dir/nwy_test_demo/nwy_test_cli/modules/nwy_test_cli_os.obj
 .rodata.nwy_test_cli_service_timer_cb.str1.1
                0x00000000       0x58 CMakeFiles/nwy_open_app.dir/nwy_test_demo/nwy_test_cli/modules/nwy_test_cli_os.obj
 .text.nwy_test_cli_service_timer_cb
                0x00000000       0x18 CMakeFiles/nwy_open_app.dir/nwy_test_demo/nwy_test_cli/modules/nwy_test_cli_os.obj
 .rodata.nwy_test_cli_user_timer_cb.str1.1
                0x00000000       0x4c CMakeFiles/nwy_open_app.dir/nwy_test_demo/nwy_test_cli/modules/nwy_test_cli_os.obj
 .text.nwy_test_cli_user_timer_cb
                0x00000000       0x18 CMakeFiles/nwy_open_app.dir/nwy_test_demo/nwy_test_cli/modules/nwy_test_cli_os.obj
 .rodata.nwy_cli_semaphore_taskB_proc.str1.1
                0x00000000       0x1d CMakeFiles/nwy_open_app.dir/nwy_test_demo/nwy_test_cli/modules/nwy_test_cli_os.obj
 .text.nwy_cli_semaphore_taskB_proc
                0x00000000       0x50 CMakeFiles/nwy_open_app.dir/nwy_test_demo/nwy_test_cli/modules/nwy_test_cli_os.obj
 .rodata.nwy_cli_semaphore_taskA_proc.str1.1
                0x00000000       0x1d CMakeFiles/nwy_open_app.dir/nwy_test_demo/nwy_test_cli/modules/nwy_test_cli_os.obj
 .text.nwy_cli_semaphore_taskA_proc
                0x00000000       0x50 CMakeFiles/nwy_open_app.dir/nwy_test_demo/nwy_test_cli/modules/nwy_test_cli_os.obj
 .rodata.nwy_test_cli_user_thread_cb.str1.1
                0x00000000       0x6f CMakeFiles/nwy_open_app.dir/nwy_test_demo/nwy_test_cli/modules/nwy_test_cli_os.obj
 .text.nwy_test_cli_user_thread_cb
                0x00000000       0x2c CMakeFiles/nwy_open_app.dir/nwy_test_demo/nwy_test_cli/modules/nwy_test_cli_os.obj
 .rodata.nwy_at_cmd_process_callback.str1.1
                0x00000000       0x24 CMakeFiles/nwy_open_app.dir/nwy_test_demo/nwy_test_cli/modules/nwy_test_cli_os.obj
 .text.nwy_at_cmd_process_callback
                0x00000000       0xa4 CMakeFiles/nwy_open_app.dir/nwy_test_demo/nwy_test_cli/modules/nwy_test_cli_os.obj
 .rodata.priority_test_callback.str1.1
                0x00000000       0xef CMakeFiles/nwy_open_app.dir/nwy_test_demo/nwy_test_cli/modules/nwy_test_cli_os.obj
 .text.priority_test_callback
                0x00000000       0xdc CMakeFiles/nwy_open_app.dir/nwy_test_demo/nwy_test_cli/modules/nwy_test_cli_os.obj
 .rodata.event_receiver_thread.str1.1
                0x00000000       0x5a CMakeFiles/nwy_open_app.dir/nwy_test_demo/nwy_test_cli/modules/nwy_test_cli_os.obj
 .text.event_receiver_thread
                0x00000000       0xa0 CMakeFiles/nwy_open_app.dir/nwy_test_demo/nwy_test_cli/modules/nwy_test_cli_os.obj
 .rodata.event_sender_thread.str1.1
                0x00000000       0x5e CMakeFiles/nwy_open_app.dir/nwy_test_demo/nwy_test_cli/modules/nwy_test_cli_os.obj
 .text.event_sender_thread
                0x00000000       0x70 CMakeFiles/nwy_open_app.dir/nwy_test_demo/nwy_test_cli/modules/nwy_test_cli_os.obj
 .rodata.nwy_cli_tcpsetup_cb.str1.1
                0x00000000       0x12 CMakeFiles/nwy_open_app.dir/nwy_test_demo/nwy_test_cli/modules/nwy_test_cli_os.obj
 .text.nwy_cli_tcpsetup_cb
                0x00000000       0x20 CMakeFiles/nwy_open_app.dir/nwy_test_demo/nwy_test_cli/modules/nwy_test_cli_os.obj
 .rodata.nwy_cli_tcprecvs_cb.str1.1
                0x00000000        0xf CMakeFiles/nwy_open_app.dir/nwy_test_demo/nwy_test_cli/modules/nwy_test_cli_os.obj
 .text.nwy_cli_tcprecvs_cb
                0x00000000       0x20 CMakeFiles/nwy_open_app.dir/nwy_test_demo/nwy_test_cli/modules/nwy_test_cli_os.obj
 .rodata.nwy_cli_tcp_close_cb.str1.1
                0x00000000        0xc CMakeFiles/nwy_open_app.dir/nwy_test_demo/nwy_test_cli/modules/nwy_test_cli_os.obj
 .text.nwy_cli_tcp_close_cb
                0x00000000       0x20 CMakeFiles/nwy_open_app.dir/nwy_test_demo/nwy_test_cli/modules/nwy_test_cli_os.obj
 .rodata.nwy_cli_tcprecv_cb.str1.1
                0x00000000        0xb CMakeFiles/nwy_open_app.dir/nwy_test_demo/nwy_test_cli/modules/nwy_test_cli_os.obj
 .text.nwy_cli_tcprecv_cb
                0x00000000       0x20 CMakeFiles/nwy_open_app.dir/nwy_test_demo/nwy_test_cli/modules/nwy_test_cli_os.obj
 .rodata.nwy_cli_acpt_close_cb.str1.1
                0x00000000       0x10 CMakeFiles/nwy_open_app.dir/nwy_test_demo/nwy_test_cli/modules/nwy_test_cli_os.obj
 .text.nwy_cli_acpt_close_cb
                0x00000000       0x20 CMakeFiles/nwy_open_app.dir/nwy_test_demo/nwy_test_cli/modules/nwy_test_cli_os.obj
 .rodata.nwy_cli_udprecv_cb.str1.1
                0x00000000        0xb CMakeFiles/nwy_open_app.dir/nwy_test_demo/nwy_test_cli/modules/nwy_test_cli_os.obj
 .text.nwy_cli_udprecv_cb
                0x00000000       0x20 CMakeFiles/nwy_open_app.dir/nwy_test_demo/nwy_test_cli/modules/nwy_test_cli_os.obj
 .rodata.nwy_cli_client_acpt_cb.str1.1
                0x00000000       0x18 CMakeFiles/nwy_open_app.dir/nwy_test_demo/nwy_test_cli/modules/nwy_test_cli_os.obj
 .text.nwy_cli_client_acpt_cb
                0x00000000       0x20 CMakeFiles/nwy_open_app.dir/nwy_test_demo/nwy_test_cli/modules/nwy_test_cli_os.obj
 .rodata.nwy_cli_gprs_disconnect_cb.str1.1
                0x00000000       0x15 CMakeFiles/nwy_open_app.dir/nwy_test_demo/nwy_test_cli/modules/nwy_test_cli_os.obj
 .text.nwy_cli_gprs_disconnect_cb
                0x00000000       0x20 CMakeFiles/nwy_open_app.dir/nwy_test_demo/nwy_test_cli/modules/nwy_test_cli_os.obj
 .rodata.nwy_cli_sms_list_resp_cb.str1.1
                0x00000000        0xa CMakeFiles/nwy_open_app.dir/nwy_test_demo/nwy_test_cli/modules/nwy_test_cli_os.obj
 .text.nwy_cli_sms_list_resp_cb
                0x00000000       0x20 CMakeFiles/nwy_open_app.dir/nwy_test_demo/nwy_test_cli/modules/nwy_test_cli_os.obj
 .rodata.nwy_test_cli_get_model.str1.1
                0x00000000       0x11 CMakeFiles/nwy_open_app.dir/nwy_test_demo/nwy_test_cli/modules/nwy_test_cli_os.obj
 .text.nwy_test_cli_get_model
                0x00000000       0x2c CMakeFiles/nwy_open_app.dir/nwy_test_demo/nwy_test_cli/modules/nwy_test_cli_os.obj
 .rodata.nwy_test_cli_get_imei.str1.1
                0x00000000       0x22 CMakeFiles/nwy_open_app.dir/nwy_test_demo/nwy_test_cli/modules/nwy_test_cli_os.obj
 .text.nwy_test_cli_get_imei
                0x00000000       0x34 CMakeFiles/nwy_open_app.dir/nwy_test_demo/nwy_test_cli/modules/nwy_test_cli_os.obj
 .rodata.nwy_test_cli_set_app_version.str1.1
                0x00000000       0xad CMakeFiles/nwy_open_app.dir/nwy_test_demo/nwy_test_cli/modules/nwy_test_cli_os.obj
 .text.nwy_test_cli_set_app_version
                0x00000000       0x60 CMakeFiles/nwy_open_app.dir/nwy_test_demo/nwy_test_cli/modules/nwy_test_cli_os.obj
 .rodata.nwy_test_cli_get_open_sdk_ver_string.str1.1
                0x00000000       0xcc CMakeFiles/nwy_open_app.dir/nwy_test_demo/nwy_test_cli/modules/nwy_test_cli_os.obj
 .text.nwy_test_cli_get_open_sdk_ver_string
                0x00000000       0x54 CMakeFiles/nwy_open_app.dir/nwy_test_demo/nwy_test_cli/modules/nwy_test_cli_os.obj
 .rodata.nwy_test_cli_get_sw_ver.str1.1
                0x00000000       0x14 CMakeFiles/nwy_open_app.dir/nwy_test_demo/nwy_test_cli/modules/nwy_test_cli_os.obj
 .text.nwy_test_cli_get_sw_ver
                0x00000000       0x2c CMakeFiles/nwy_open_app.dir/nwy_test_demo/nwy_test_cli/modules/nwy_test_cli_os.obj
 .rodata.nwy_test_cli_get_hw_ver.str1.1
                0x00000000       0x14 CMakeFiles/nwy_open_app.dir/nwy_test_demo/nwy_test_cli/modules/nwy_test_cli_os.obj
 .text.nwy_test_cli_get_hw_ver
                0x00000000       0x2c CMakeFiles/nwy_open_app.dir/nwy_test_demo/nwy_test_cli/modules/nwy_test_cli_os.obj
 .rodata.nwy_test_cli_get_heap_info.str1.1
                0x00000000       0x65 CMakeFiles/nwy_open_app.dir/nwy_test_demo/nwy_test_cli/modules/nwy_test_cli_os.obj
 .text.nwy_test_cli_get_heap_info
                0x00000000       0x44 CMakeFiles/nwy_open_app.dir/nwy_test_demo/nwy_test_cli/modules/nwy_test_cli_os.obj
 .rodata.nwy_test_cli_get_cpu_temp.str1.1
                0x00000000       0x32 CMakeFiles/nwy_open_app.dir/nwy_test_demo/nwy_test_cli/modules/nwy_test_cli_os.obj
 .text.nwy_test_cli_get_cpu_temp
                0x00000000       0x40 CMakeFiles/nwy_open_app.dir/nwy_test_demo/nwy_test_cli/modules/nwy_test_cli_os.obj
 .rodata.nwy_test_cli_start_timer.str1.1
                0x00000000       0x3c CMakeFiles/nwy_open_app.dir/nwy_test_demo/nwy_test_cli/modules/nwy_test_cli_os.obj
 .text.nwy_test_cli_start_timer
                0x00000000       0x70 CMakeFiles/nwy_open_app.dir/nwy_test_demo/nwy_test_cli/modules/nwy_test_cli_os.obj
 .rodata.nwy_test_cli_start_isr_timer.str1.1
                0x00000000       0x68 CMakeFiles/nwy_open_app.dir/nwy_test_demo/nwy_test_cli/modules/nwy_test_cli_os.obj
 .text.nwy_test_cli_start_isr_timer
                0x00000000       0x6c CMakeFiles/nwy_open_app.dir/nwy_test_demo/nwy_test_cli/modules/nwy_test_cli_os.obj
 .rodata.nwy_test_cli_start_service_timer.str1.1
                0x00000000       0x73 CMakeFiles/nwy_open_app.dir/nwy_test_demo/nwy_test_cli/modules/nwy_test_cli_os.obj
 .text.nwy_test_cli_start_service_timer
                0x00000000       0x70 CMakeFiles/nwy_open_app.dir/nwy_test_demo/nwy_test_cli/modules/nwy_test_cli_os.obj
 .rodata.nwy_test_cli_start_user_timer.str1.1
                0x00000000       0xbd CMakeFiles/nwy_open_app.dir/nwy_test_demo/nwy_test_cli/modules/nwy_test_cli_os.obj
 .text.nwy_test_cli_start_user_timer
                0x00000000       0xe0 CMakeFiles/nwy_open_app.dir/nwy_test_demo/nwy_test_cli/modules/nwy_test_cli_os.obj
 .rodata.nwy_test_cli_start_all_timers.str1.1
                0x00000000       0x6d CMakeFiles/nwy_open_app.dir/nwy_test_demo/nwy_test_cli/modules/nwy_test_cli_os.obj
 .text.nwy_test_cli_start_all_timers
                0x00000000       0x34 CMakeFiles/nwy_open_app.dir/nwy_test_demo/nwy_test_cli/modules/nwy_test_cli_os.obj
 .rodata.nwy_test_cli_stop_timer.str1.1
                0x00000000       0x39 CMakeFiles/nwy_open_app.dir/nwy_test_demo/nwy_test_cli/modules/nwy_test_cli_os.obj
 .text.nwy_test_cli_stop_timer
                0x00000000       0x34 CMakeFiles/nwy_open_app.dir/nwy_test_demo/nwy_test_cli/modules/nwy_test_cli_os.obj
 .rodata.nwy_test_cli_stop_all_timers.str1.1
                0x00000000       0xcc CMakeFiles/nwy_open_app.dir/nwy_test_demo/nwy_test_cli/modules/nwy_test_cli_os.obj
 .text.nwy_test_cli_stop_all_timers
                0x00000000       0xb4 CMakeFiles/nwy_open_app.dir/nwy_test_demo/nwy_test_cli/modules/nwy_test_cli_os.obj
 .rodata.nwy_test_cli_get_time.str1.1
                0x00000000       0x24 CMakeFiles/nwy_open_app.dir/nwy_test_demo/nwy_test_cli/modules/nwy_test_cli_os.obj
 .text.nwy_test_cli_get_time
                0x00000000       0x48 CMakeFiles/nwy_open_app.dir/nwy_test_demo/nwy_test_cli/modules/nwy_test_cli_os.obj
 .rodata.nwy_test_cli_set_time.str1.1
                0x00000000       0xfa CMakeFiles/nwy_open_app.dir/nwy_test_demo/nwy_test_cli/modules/nwy_test_cli_os.obj
 .text.nwy_test_cli_set_time
                0x00000000      0x13c CMakeFiles/nwy_open_app.dir/nwy_test_demo/nwy_test_cli/modules/nwy_test_cli_os.obj
 .rodata.nwy_test_cli_test_semp.str1.1
                0x00000000       0x40 CMakeFiles/nwy_open_app.dir/nwy_test_demo/nwy_test_cli/modules/nwy_test_cli_os.obj
 .text.nwy_test_cli_test_semp
                0x00000000       0x8c CMakeFiles/nwy_open_app.dir/nwy_test_demo/nwy_test_cli/modules/nwy_test_cli_os.obj
 .rodata.nwy_test_cli_virt_at_init.str1.1
                0x00000000       0xac CMakeFiles/nwy_open_app.dir/nwy_test_demo/nwy_test_cli/modules/nwy_test_cli_os.obj
 .text.nwy_test_cli_virt_at_init
                0x00000000       0x40 CMakeFiles/nwy_open_app.dir/nwy_test_demo/nwy_test_cli/modules/nwy_test_cli_os.obj
 .rodata.nwy_test_cli_reg_at_unsolicited.str1.1
                0x00000000       0xf2 CMakeFiles/nwy_open_app.dir/nwy_test_demo/nwy_test_cli/modules/nwy_test_cli_os.obj
 .text.nwy_test_cli_reg_at_unsolicited
                0x00000000       0x6c CMakeFiles/nwy_open_app.dir/nwy_test_demo/nwy_test_cli/modules/nwy_test_cli_os.obj
 .text.nwy_test_cli_send_virt_at
                0x00000000       0x18 CMakeFiles/nwy_open_app.dir/nwy_test_demo/nwy_test_cli/modules/nwy_test_cli_os.obj
 .rodata.nwy_test_cli_reg_at_fwd.str1.1
                0x00000000       0x30 CMakeFiles/nwy_open_app.dir/nwy_test_demo/nwy_test_cli/modules/nwy_test_cli_os.obj
 .text.nwy_test_cli_reg_at_fwd
                0x00000000       0x30 CMakeFiles/nwy_open_app.dir/nwy_test_demo/nwy_test_cli/modules/nwy_test_cli_os.obj
 .rodata.nwy_test_cli_thread_priority_test.str1.1
                0x00000000       0x78 CMakeFiles/nwy_open_app.dir/nwy_test_demo/nwy_test_cli/modules/nwy_test_cli_os.obj
 .text.nwy_test_cli_thread_priority_test
                0x00000000       0x80 CMakeFiles/nwy_open_app.dir/nwy_test_demo/nwy_test_cli/modules/nwy_test_cli_os.obj
 .rodata.nwy_test_cli_event_wait_performance.str1.1
                0x00000000      0x1b6 CMakeFiles/nwy_open_app.dir/nwy_test_demo/nwy_test_cli/modules/nwy_test_cli_os.obj
 .text.nwy_test_cli_event_wait_performance
                0x00000000      0x1e0 CMakeFiles/nwy_open_app.dir/nwy_test_demo/nwy_test_cli/modules/nwy_test_cli_os.obj
 .rodata.nwy_test_cli_date_timestamp.str1.1
                0x00000000      0x20f CMakeFiles/nwy_open_app.dir/nwy_test_demo/nwy_test_cli/modules/nwy_test_cli_os.obj
 .text.nwy_test_cli_date_timestamp
                0x00000000      0x118 CMakeFiles/nwy_open_app.dir/nwy_test_demo/nwy_test_cli/modules/nwy_test_cli_os.obj
 .rodata        0x00000000       0x30 CMakeFiles/nwy_open_app.dir/nwy_test_demo/nwy_test_cli/modules/nwy_test_cli_os.obj
 .bss.g_received_counts
                0x00000000       0x28 CMakeFiles/nwy_open_app.dir/nwy_test_demo/nwy_test_cli/modules/nwy_test_cli_os.obj
 .bss.g_receiver_thread
                0x00000000        0x4 CMakeFiles/nwy_open_app.dir/nwy_test_demo/nwy_test_cli/modules/nwy_test_cli_os.obj
 .bss.g_sender_threads
                0x00000000       0x28 CMakeFiles/nwy_open_app.dir/nwy_test_demo/nwy_test_cli/modules/nwy_test_cli_os.obj
 .bss.g_test_complete
                0x00000000        0x1 CMakeFiles/nwy_open_app.dir/nwy_test_demo/nwy_test_cli/modules/nwy_test_cli_os.obj
 .bss.g_total_times
                0x00000000       0x50 CMakeFiles/nwy_open_app.dir/nwy_test_demo/nwy_test_cli/modules/nwy_test_cli_os.obj
 .bss.priority_test_thread
                0x00000000        0x4 CMakeFiles/nwy_open_app.dir/nwy_test_demo/nwy_test_cli/modules/nwy_test_cli_os.obj
 .bss.s_isr_timer_count
                0x00000000        0x4 CMakeFiles/nwy_open_app.dir/nwy_test_demo/nwy_test_cli/modules/nwy_test_cli_os.obj
 .bss.s_nwy_at_init_flag
                0x00000000        0x4 CMakeFiles/nwy_open_app.dir/nwy_test_demo/nwy_test_cli/modules/nwy_test_cli_os.obj
 .bss.s_nwy_cli_semaphore
                0x00000000        0x4 CMakeFiles/nwy_open_app.dir/nwy_test_demo/nwy_test_cli/modules/nwy_test_cli_os.obj
 .bss.s_nwy_isr_timer
                0x00000000        0x4 CMakeFiles/nwy_open_app.dir/nwy_test_demo/nwy_test_cli/modules/nwy_test_cli_os.obj
 .bss.s_nwy_semaphore_count
                0x00000000        0x4 CMakeFiles/nwy_open_app.dir/nwy_test_demo/nwy_test_cli/modules/nwy_test_cli_os.obj
 .bss.s_nwy_service_timer
                0x00000000        0x4 CMakeFiles/nwy_open_app.dir/nwy_test_demo/nwy_test_cli/modules/nwy_test_cli_os.obj
 .bss.s_nwy_task_A
                0x00000000        0x4 CMakeFiles/nwy_open_app.dir/nwy_test_demo/nwy_test_cli/modules/nwy_test_cli_os.obj
 .bss.s_nwy_task_B
                0x00000000        0x4 CMakeFiles/nwy_open_app.dir/nwy_test_demo/nwy_test_cli/modules/nwy_test_cli_os.obj
 .bss.s_nwy_test_timer
                0x00000000        0x4 CMakeFiles/nwy_open_app.dir/nwy_test_demo/nwy_test_cli/modules/nwy_test_cli_os.obj
 .bss.s_nwy_user_thread
                0x00000000        0x4 CMakeFiles/nwy_open_app.dir/nwy_test_demo/nwy_test_cli/modules/nwy_test_cli_os.obj
 .bss.s_nwy_user_timer
                0x00000000        0x4 CMakeFiles/nwy_open_app.dir/nwy_test_demo/nwy_test_cli/modules/nwy_test_cli_os.obj
 .bss.s_service_timer_count
                0x00000000        0x4 CMakeFiles/nwy_open_app.dir/nwy_test_demo/nwy_test_cli/modules/nwy_test_cli_os.obj
 .bss.s_timer_count
                0x00000000        0x4 CMakeFiles/nwy_open_app.dir/nwy_test_demo/nwy_test_cli/modules/nwy_test_cli_os.obj
 .bss.s_user_timer_count
                0x00000000        0x4 CMakeFiles/nwy_open_app.dir/nwy_test_demo/nwy_test_cli/modules/nwy_test_cli_os.obj
 .bss.test_complete_sem
                0x00000000        0x4 CMakeFiles/nwy_open_app.dir/nwy_test_demo/nwy_test_cli/modules/nwy_test_cli_os.obj
 .rodata.__func__.0
                0x00000000       0x16 CMakeFiles/nwy_open_app.dir/nwy_test_demo/nwy_test_cli/modules/nwy_test_cli_os.obj
 .debug_info    0x00000000     0x2a8f CMakeFiles/nwy_open_app.dir/nwy_test_demo/nwy_test_cli/modules/nwy_test_cli_os.obj
 .debug_abbrev  0x00000000      0x3bc CMakeFiles/nwy_open_app.dir/nwy_test_demo/nwy_test_cli/modules/nwy_test_cli_os.obj
 .debug_loc     0x00000000     0x1148 CMakeFiles/nwy_open_app.dir/nwy_test_demo/nwy_test_cli/modules/nwy_test_cli_os.obj
 .debug_aranges
                0x00000000      0x188 CMakeFiles/nwy_open_app.dir/nwy_test_demo/nwy_test_cli/modules/nwy_test_cli_os.obj
 .debug_ranges  0x00000000      0x2f8 CMakeFiles/nwy_open_app.dir/nwy_test_demo/nwy_test_cli/modules/nwy_test_cli_os.obj
 .debug_line    0x00000000     0x143c CMakeFiles/nwy_open_app.dir/nwy_test_demo/nwy_test_cli/modules/nwy_test_cli_os.obj
 .debug_str     0x00000000     0x1488 CMakeFiles/nwy_open_app.dir/nwy_test_demo/nwy_test_cli/modules/nwy_test_cli_os.obj
 .comment       0x00000000       0x4a CMakeFiles/nwy_open_app.dir/nwy_test_demo/nwy_test_cli/modules/nwy_test_cli_os.obj
 .debug_frame   0x00000000      0x5cc CMakeFiles/nwy_open_app.dir/nwy_test_demo/nwy_test_cli/modules/nwy_test_cli_os.obj
 .ARM.attributes
                0x00000000       0x31 CMakeFiles/nwy_open_app.dir/nwy_test_demo/nwy_test_cli/modules/nwy_test_cli_os.obj
 .text          0x00000000        0x0 CMakeFiles/nwy_open_app.dir/nwy_test_demo/nwy_test_cli/modules/nwy_test_cli_http.obj
 .data          0x00000000        0x0 CMakeFiles/nwy_open_app.dir/nwy_test_demo/nwy_test_cli/modules/nwy_test_cli_http.obj
 .bss           0x00000000        0x0 CMakeFiles/nwy_open_app.dir/nwy_test_demo/nwy_test_cli/modules/nwy_test_cli_http.obj
 .rodata.nwy_test_set_http_header.str1.1
                0x00000000       0x7c CMakeFiles/nwy_open_app.dir/nwy_test_demo/nwy_test_cli/modules/nwy_test_cli_http.obj
 .text.nwy_test_set_http_header
                0x00000000       0xd8 CMakeFiles/nwy_open_app.dir/nwy_test_demo/nwy_test_cli/modules/nwy_test_cli_http.obj
 .text.nwy_cli_get_http_clientid
                0x00000000       0x30 CMakeFiles/nwy_open_app.dir/nwy_test_demo/nwy_test_cli/modules/nwy_test_cli_http.obj
 .rodata.nwy_cli_https_result_cb.str1.1
                0x00000000      0x209 CMakeFiles/nwy_open_app.dir/nwy_test_demo/nwy_test_cli/modules/nwy_test_cli_http.obj
 .text.nwy_cli_https_result_cb
                0x00000000      0x120 CMakeFiles/nwy_open_app.dir/nwy_test_demo/nwy_test_cli/modules/nwy_test_cli_http.obj
 .rodata.nwy_test_cli_http_setup.str1.1
                0x00000000      0x283 CMakeFiles/nwy_open_app.dir/nwy_test_demo/nwy_test_cli/modules/nwy_test_cli_http.obj
 .text.nwy_test_cli_http_setup
                0x00000000      0x268 CMakeFiles/nwy_open_app.dir/nwy_test_demo/nwy_test_cli/modules/nwy_test_cli_http.obj
 .rodata.nwy_test_cli_http_get.str1.1
                0x00000000       0xbe CMakeFiles/nwy_open_app.dir/nwy_test_demo/nwy_test_cli/modules/nwy_test_cli_http.obj
 .text.nwy_test_cli_http_get
                0x00000000      0x104 CMakeFiles/nwy_open_app.dir/nwy_test_demo/nwy_test_cli/modules/nwy_test_cli_http.obj
 .text.nwy_test_cli_http_head
                0x00000000       0xdc CMakeFiles/nwy_open_app.dir/nwy_test_demo/nwy_test_cli/modules/nwy_test_cli_http.obj
 .rodata.nwy_test_cli_http_post.str1.1
                0x00000000       0xbc CMakeFiles/nwy_open_app.dir/nwy_test_demo/nwy_test_cli/modules/nwy_test_cli_http.obj
 .text.nwy_test_cli_http_post
                0x00000000      0x144 CMakeFiles/nwy_open_app.dir/nwy_test_demo/nwy_test_cli/modules/nwy_test_cli_http.obj
 .rodata.nwy_test_cli_http_put.str1.1
                0x00000000       0x5c CMakeFiles/nwy_open_app.dir/nwy_test_demo/nwy_test_cli/modules/nwy_test_cli_http.obj
 .text.nwy_test_cli_http_put
                0x00000000      0x144 CMakeFiles/nwy_open_app.dir/nwy_test_demo/nwy_test_cli/modules/nwy_test_cli_http.obj
 .rodata.nwy_test_cli_http_open_mode.str1.1
                0x00000000      0x12e CMakeFiles/nwy_open_app.dir/nwy_test_demo/nwy_test_cli/modules/nwy_test_cli_http.obj
 .text.nwy_test_cli_http_open_mode
                0x00000000      0x28c CMakeFiles/nwy_open_app.dir/nwy_test_demo/nwy_test_cli/modules/nwy_test_cli_http.obj
 .rodata.nwy_test_cli_http_close.str1.1
                0x00000000       0x41 CMakeFiles/nwy_open_app.dir/nwy_test_demo/nwy_test_cli/modules/nwy_test_cli_http.obj
 .text.nwy_test_cli_http_close
                0x00000000       0x80 CMakeFiles/nwy_open_app.dir/nwy_test_demo/nwy_test_cli/modules/nwy_test_cli_http.obj
 .bss.http_handle
                0x00000000       0x54 CMakeFiles/nwy_open_app.dir/nwy_test_demo/nwy_test_cli/modules/nwy_test_cli_http.obj
 .rodata.__func__.0
                0x00000000       0x18 CMakeFiles/nwy_open_app.dir/nwy_test_demo/nwy_test_cli/modules/nwy_test_cli_http.obj
 .debug_info    0x00000000     0x1dc0 CMakeFiles/nwy_open_app.dir/nwy_test_demo/nwy_test_cli/modules/nwy_test_cli_http.obj
 .debug_abbrev  0x00000000      0x339 CMakeFiles/nwy_open_app.dir/nwy_test_demo/nwy_test_cli/modules/nwy_test_cli_http.obj
 .debug_loc     0x00000000     0x11d1 CMakeFiles/nwy_open_app.dir/nwy_test_demo/nwy_test_cli/modules/nwy_test_cli_http.obj
 .debug_aranges
                0x00000000       0x68 CMakeFiles/nwy_open_app.dir/nwy_test_demo/nwy_test_cli/modules/nwy_test_cli_http.obj
 .debug_ranges  0x00000000       0x58 CMakeFiles/nwy_open_app.dir/nwy_test_demo/nwy_test_cli/modules/nwy_test_cli_http.obj
 .debug_line    0x00000000      0xd9e CMakeFiles/nwy_open_app.dir/nwy_test_demo/nwy_test_cli/modules/nwy_test_cli_http.obj
 .debug_str     0x00000000      0xe63 CMakeFiles/nwy_open_app.dir/nwy_test_demo/nwy_test_cli/modules/nwy_test_cli_http.obj
 .comment       0x00000000       0x4a CMakeFiles/nwy_open_app.dir/nwy_test_demo/nwy_test_cli/modules/nwy_test_cli_http.obj
 .debug_frame   0x00000000      0x1cc CMakeFiles/nwy_open_app.dir/nwy_test_demo/nwy_test_cli/modules/nwy_test_cli_http.obj
 .ARM.attributes
                0x00000000       0x31 CMakeFiles/nwy_open_app.dir/nwy_test_demo/nwy_test_cli/modules/nwy_test_cli_http.obj
 .text          0x00000000        0x0 CMakeFiles/nwy_open_app.dir/nwy_test_demo/nwy_test_cli/modules/nwy_test_cli_sim.obj
 .data          0x00000000        0x0 CMakeFiles/nwy_open_app.dir/nwy_test_demo/nwy_test_cli/modules/nwy_test_cli_sim.obj
 .bss           0x00000000        0x0 CMakeFiles/nwy_open_app.dir/nwy_test_demo/nwy_test_cli/modules/nwy_test_cli_sim.obj
 .rodata.nwy_test_cli_sim_recv_cb.str1.1
                0x00000000       0x42 CMakeFiles/nwy_open_app.dir/nwy_test_demo/nwy_test_cli/modules/nwy_test_cli_sim.obj
 .text.nwy_test_cli_sim_recv_cb
                0x00000000       0x40 CMakeFiles/nwy_open_app.dir/nwy_test_demo/nwy_test_cli/modules/nwy_test_cli_sim.obj
 .rodata.nwy_test_cli_get_sim_status.str1.1
                0x00000000       0xd1 CMakeFiles/nwy_open_app.dir/nwy_test_demo/nwy_test_cli/modules/nwy_test_cli_sim.obj
 .text.nwy_test_cli_get_sim_status
                0x00000000       0x74 CMakeFiles/nwy_open_app.dir/nwy_test_demo/nwy_test_cli/modules/nwy_test_cli_sim.obj
 .rodata.nwy_test_cli_verify_pin.str1.1
                0x00000000       0x80 CMakeFiles/nwy_open_app.dir/nwy_test_demo/nwy_test_cli/modules/nwy_test_cli_sim.obj
 .text.nwy_test_cli_verify_pin
                0x00000000       0x68 CMakeFiles/nwy_open_app.dir/nwy_test_demo/nwy_test_cli/modules/nwy_test_cli_sim.obj
 .rodata.nwy_test_cli_get_pin_mode.str1.1
                0x00000000       0x28 CMakeFiles/nwy_open_app.dir/nwy_test_demo/nwy_test_cli/modules/nwy_test_cli_sim.obj
 .text.nwy_test_cli_get_pin_mode
                0x00000000       0x44 CMakeFiles/nwy_open_app.dir/nwy_test_demo/nwy_test_cli/modules/nwy_test_cli_sim.obj
 .rodata.nwy_test_cli_set_pin_mode.str1.1
                0x00000000       0x9c CMakeFiles/nwy_open_app.dir/nwy_test_demo/nwy_test_cli/modules/nwy_test_cli_sim.obj
 .text.nwy_test_cli_set_pin_mode
                0x00000000       0x84 CMakeFiles/nwy_open_app.dir/nwy_test_demo/nwy_test_cli/modules/nwy_test_cli_sim.obj
 .rodata.nwy_test_cli_change_pin.str1.1
                0x00000000       0xaf CMakeFiles/nwy_open_app.dir/nwy_test_demo/nwy_test_cli/modules/nwy_test_cli_sim.obj
 .text.nwy_test_cli_change_pin
                0x00000000       0x90 CMakeFiles/nwy_open_app.dir/nwy_test_demo/nwy_test_cli/modules/nwy_test_cli_sim.obj
 .rodata.nwy_test_cli_verify_puk.str1.1
                0x00000000       0x8c CMakeFiles/nwy_open_app.dir/nwy_test_demo/nwy_test_cli/modules/nwy_test_cli_sim.obj
 .text.nwy_test_cli_verify_puk
                0x00000000       0x90 CMakeFiles/nwy_open_app.dir/nwy_test_demo/nwy_test_cli/modules/nwy_test_cli_sim.obj
 .rodata.nwy_test_cli_get_imsi.str1.1
                0x00000000       0x21 CMakeFiles/nwy_open_app.dir/nwy_test_demo/nwy_test_cli/modules/nwy_test_cli_sim.obj
 .text.nwy_test_cli_get_imsi
                0x00000000       0x48 CMakeFiles/nwy_open_app.dir/nwy_test_demo/nwy_test_cli/modules/nwy_test_cli_sim.obj
 .rodata.nwy_test_cli_get_iccid.str1.1
                0x00000000       0x50 CMakeFiles/nwy_open_app.dir/nwy_test_demo/nwy_test_cli/modules/nwy_test_cli_sim.obj
 .text.nwy_test_cli_get_iccid
                0x00000000       0x68 CMakeFiles/nwy_open_app.dir/nwy_test_demo/nwy_test_cli/modules/nwy_test_cli_sim.obj
 .rodata.nwy_test_cli_get_msisdn.str1.1
                0x00000000       0x25 CMakeFiles/nwy_open_app.dir/nwy_test_demo/nwy_test_cli/modules/nwy_test_cli_sim.obj
 .text.nwy_test_cli_get_msisdn
                0x00000000       0x48 CMakeFiles/nwy_open_app.dir/nwy_test_demo/nwy_test_cli/modules/nwy_test_cli_sim.obj
 .rodata.nwy_test_cli_set_msisdn.str1.1
                0x00000000       0x1a CMakeFiles/nwy_open_app.dir/nwy_test_demo/nwy_test_cli/modules/nwy_test_cli_sim.obj
 .text.nwy_test_cli_set_msisdn
                0x00000000        0xc CMakeFiles/nwy_open_app.dir/nwy_test_demo/nwy_test_cli/modules/nwy_test_cli_sim.obj
 .rodata.nwy_test_cli_get_pin_puk_times.str1.1
                0x00000000       0x4d CMakeFiles/nwy_open_app.dir/nwy_test_demo/nwy_test_cli/modules/nwy_test_cli_sim.obj
 .text.nwy_test_cli_get_pin_puk_times
                0x00000000       0x50 CMakeFiles/nwy_open_app.dir/nwy_test_demo/nwy_test_cli/modules/nwy_test_cli_sim.obj
 .rodata.nwy_test_cli_get_sim_slot.str1.1
                0x00000000       0x30 CMakeFiles/nwy_open_app.dir/nwy_test_demo/nwy_test_cli/modules/nwy_test_cli_sim.obj
 .text.nwy_test_cli_get_sim_slot
                0x00000000       0x30 CMakeFiles/nwy_open_app.dir/nwy_test_demo/nwy_test_cli/modules/nwy_test_cli_sim.obj
 .rodata.nwy_test_cli_set_sim_slot.str1.1
                0x00000000       0x86 CMakeFiles/nwy_open_app.dir/nwy_test_demo/nwy_test_cli/modules/nwy_test_cli_sim.obj
 .text.nwy_test_cli_set_sim_slot
                0x00000000       0x40 CMakeFiles/nwy_open_app.dir/nwy_test_demo/nwy_test_cli/modules/nwy_test_cli_sim.obj
 .rodata.nwy_test_cli_set_sim_detect.str1.1
                0x00000000       0x89 CMakeFiles/nwy_open_app.dir/nwy_test_demo/nwy_test_cli/modules/nwy_test_cli_sim.obj
 .text.nwy_test_cli_set_sim_detect
                0x00000000       0x60 CMakeFiles/nwy_open_app.dir/nwy_test_demo/nwy_test_cli/modules/nwy_test_cli_sim.obj
 .rodata.nwy_test_cli_set_csim.str1.1
                0x00000000       0xa5 CMakeFiles/nwy_open_app.dir/nwy_test_demo/nwy_test_cli/modules/nwy_test_cli_sim.obj
 .text.nwy_test_cli_set_csim
                0x00000000       0xb4 CMakeFiles/nwy_open_app.dir/nwy_test_demo/nwy_test_cli/modules/nwy_test_cli_sim.obj
 .rodata.nwy_test_cli_set_sim_power_mode.str1.1
                0x00000000       0x7c CMakeFiles/nwy_open_app.dir/nwy_test_demo/nwy_test_cli/modules/nwy_test_cli_sim.obj
 .text.nwy_test_cli_set_sim_power_mode
                0x00000000       0x50 CMakeFiles/nwy_open_app.dir/nwy_test_demo/nwy_test_cli/modules/nwy_test_cli_sim.obj
 .rodata.nwy_test_cli_sim_reg.str1.1
                0x00000000       0x80 CMakeFiles/nwy_open_app.dir/nwy_test_demo/nwy_test_cli/modules/nwy_test_cli_sim.obj
 .text.nwy_test_cli_sim_reg
                0x00000000       0x7c CMakeFiles/nwy_open_app.dir/nwy_test_demo/nwy_test_cli/modules/nwy_test_cli_sim.obj
 .rodata.__func__.0
                0x00000000       0x17 CMakeFiles/nwy_open_app.dir/nwy_test_demo/nwy_test_cli/modules/nwy_test_cli_sim.obj
 .debug_info    0x00000000     0x163d CMakeFiles/nwy_open_app.dir/nwy_test_demo/nwy_test_cli/modules/nwy_test_cli_sim.obj
 .debug_abbrev  0x00000000      0x263 CMakeFiles/nwy_open_app.dir/nwy_test_demo/nwy_test_cli/modules/nwy_test_cli_sim.obj
 .debug_loc     0x00000000      0xb99 CMakeFiles/nwy_open_app.dir/nwy_test_demo/nwy_test_cli/modules/nwy_test_cli_sim.obj
 .debug_aranges
                0x00000000       0xa8 CMakeFiles/nwy_open_app.dir/nwy_test_demo/nwy_test_cli/modules/nwy_test_cli_sim.obj
 .debug_ranges  0x00000000       0xb0 CMakeFiles/nwy_open_app.dir/nwy_test_demo/nwy_test_cli/modules/nwy_test_cli_sim.obj
 .debug_line    0x00000000      0x908 CMakeFiles/nwy_open_app.dir/nwy_test_demo/nwy_test_cli/modules/nwy_test_cli_sim.obj
 .debug_str     0x00000000      0xd02 CMakeFiles/nwy_open_app.dir/nwy_test_demo/nwy_test_cli/modules/nwy_test_cli_sim.obj
 .comment       0x00000000       0x4a CMakeFiles/nwy_open_app.dir/nwy_test_demo/nwy_test_cli/modules/nwy_test_cli_sim.obj
 .debug_frame   0x00000000      0x25c CMakeFiles/nwy_open_app.dir/nwy_test_demo/nwy_test_cli/modules/nwy_test_cli_sim.obj
 .ARM.attributes
                0x00000000       0x31 CMakeFiles/nwy_open_app.dir/nwy_test_demo/nwy_test_cli/modules/nwy_test_cli_sim.obj
 .text          0x00000000        0x0 CMakeFiles/nwy_open_app.dir/nwy_test_demo/nwy_test_cli/modules/nwy_test_cli_loc.obj
 .data          0x00000000        0x0 CMakeFiles/nwy_open_app.dir/nwy_test_demo/nwy_test_cli/modules/nwy_test_cli_loc.obj
 .bss           0x00000000        0x0 CMakeFiles/nwy_open_app.dir/nwy_test_demo/nwy_test_cli/modules/nwy_test_cli_loc.obj
 .rodata.nwy_test_cli_loc_recv_output.str1.1
                0x00000000       0x1c CMakeFiles/nwy_open_app.dir/nwy_test_demo/nwy_test_cli/modules/nwy_test_cli_loc.obj
 .text.nwy_test_cli_loc_recv_output
                0x00000000       0x18 CMakeFiles/nwy_open_app.dir/nwy_test_demo/nwy_test_cli/modules/nwy_test_cli_loc.obj
 .rodata.nwy_test_cli_navigation_start.str1.1
                0x00000000       0x4d CMakeFiles/nwy_open_app.dir/nwy_test_demo/nwy_test_cli/modules/nwy_test_cli_loc.obj
 .text.nwy_test_cli_navigation_start
                0x00000000       0x28 CMakeFiles/nwy_open_app.dir/nwy_test_demo/nwy_test_cli/modules/nwy_test_cli_loc.obj
 .rodata.nwy_test_cli_navigation_stop.str1.1
                0x00000000       0x4b CMakeFiles/nwy_open_app.dir/nwy_test_demo/nwy_test_cli/modules/nwy_test_cli_loc.obj
 .text.nwy_test_cli_navigation_stop
                0x00000000       0x28 CMakeFiles/nwy_open_app.dir/nwy_test_demo/nwy_test_cli/modules/nwy_test_cli_loc.obj
 .rodata.nwy_test_cli_loc_mode_set.str1.1
                0x00000000      0x160 CMakeFiles/nwy_open_app.dir/nwy_test_demo/nwy_test_cli/modules/nwy_test_cli_loc.obj
 .text.nwy_test_cli_loc_mode_set
                0x00000000       0x40 CMakeFiles/nwy_open_app.dir/nwy_test_demo/nwy_test_cli/modules/nwy_test_cli_loc.obj
 .rodata.nwy_test_cli_startup_mode_set.str1.1
                0x00000000       0x92 CMakeFiles/nwy_open_app.dir/nwy_test_demo/nwy_test_cli/modules/nwy_test_cli_loc.obj
 .text.nwy_test_cli_startup_mode_set
                0x00000000       0x44 CMakeFiles/nwy_open_app.dir/nwy_test_demo/nwy_test_cli/modules/nwy_test_cli_loc.obj
 .rodata.nwy_test_cli_loc_rate_set.str1.1
                0x00000000       0x5a CMakeFiles/nwy_open_app.dir/nwy_test_demo/nwy_test_cli/modules/nwy_test_cli_loc.obj
 .text.nwy_test_cli_loc_rate_set
                0x00000000       0x38 CMakeFiles/nwy_open_app.dir/nwy_test_demo/nwy_test_cli/modules/nwy_test_cli_loc.obj
 .rodata.nwy_test_cli_nmea_data_get.str1.1
                0x00000000       0x94 CMakeFiles/nwy_open_app.dir/nwy_test_demo/nwy_test_cli/modules/nwy_test_cli_loc.obj
 .text.nwy_test_cli_nmea_data_get
                0x00000000       0x68 CMakeFiles/nwy_open_app.dir/nwy_test_demo/nwy_test_cli/modules/nwy_test_cli_loc.obj
 .rodata.nwy_test_cli_nmea_data_report_reg.str1.1
                0x00000000       0x41 CMakeFiles/nwy_open_app.dir/nwy_test_demo/nwy_test_cli/modules/nwy_test_cli_loc.obj
 .text.nwy_test_cli_nmea_data_report_reg
                0x00000000       0x2c CMakeFiles/nwy_open_app.dir/nwy_test_demo/nwy_test_cli/modules/nwy_test_cli_loc.obj
 .rodata.nwy_test_cli_nmea_data_parse.str1.1
                0x00000000      0x30b CMakeFiles/nwy_open_app.dir/nwy_test_demo/nwy_test_cli/modules/nwy_test_cli_loc.obj
 .text.nwy_test_cli_nmea_data_parse
                0x00000000      0x1c0 CMakeFiles/nwy_open_app.dir/nwy_test_demo/nwy_test_cli/modules/nwy_test_cli_loc.obj
 .rodata.nwy_test_cli_agnss_start.str1.1
                0x00000000      0x2db CMakeFiles/nwy_open_app.dir/nwy_test_demo/nwy_test_cli/modules/nwy_test_cli_loc.obj
 .text.nwy_test_cli_agnss_start
                0x00000000      0x128 CMakeFiles/nwy_open_app.dir/nwy_test_demo/nwy_test_cli/modules/nwy_test_cli_loc.obj
 .debug_info    0x00000000     0x1054 CMakeFiles/nwy_open_app.dir/nwy_test_demo/nwy_test_cli/modules/nwy_test_cli_loc.obj
 .debug_abbrev  0x00000000      0x22e CMakeFiles/nwy_open_app.dir/nwy_test_demo/nwy_test_cli/modules/nwy_test_cli_loc.obj
 .debug_loc     0x00000000      0x695 CMakeFiles/nwy_open_app.dir/nwy_test_demo/nwy_test_cli/modules/nwy_test_cli_loc.obj
 .debug_aranges
                0x00000000       0x68 CMakeFiles/nwy_open_app.dir/nwy_test_demo/nwy_test_cli/modules/nwy_test_cli_loc.obj
 .debug_ranges  0x00000000       0x58 CMakeFiles/nwy_open_app.dir/nwy_test_demo/nwy_test_cli/modules/nwy_test_cli_loc.obj
 .debug_line    0x00000000      0x6ac CMakeFiles/nwy_open_app.dir/nwy_test_demo/nwy_test_cli/modules/nwy_test_cli_loc.obj
 .debug_str     0x00000000      0xc9d CMakeFiles/nwy_open_app.dir/nwy_test_demo/nwy_test_cli/modules/nwy_test_cli_loc.obj
 .comment       0x00000000       0x4a CMakeFiles/nwy_open_app.dir/nwy_test_demo/nwy_test_cli/modules/nwy_test_cli_loc.obj
 .debug_frame   0x00000000      0x168 CMakeFiles/nwy_open_app.dir/nwy_test_demo/nwy_test_cli/modules/nwy_test_cli_loc.obj
 .ARM.attributes
                0x00000000       0x31 CMakeFiles/nwy_open_app.dir/nwy_test_demo/nwy_test_cli/modules/nwy_test_cli_loc.obj
 .text          0x00000000        0x0 CMakeFiles/nwy_open_app.dir/nwy_test_demo/nwy_test_cli/modules/nwy_test_cli_network.obj
 .data          0x00000000        0x0 CMakeFiles/nwy_open_app.dir/nwy_test_demo/nwy_test_cli/modules/nwy_test_cli_network.obj
 .bss           0x00000000        0x0 CMakeFiles/nwy_open_app.dir/nwy_test_demo/nwy_test_cli/modules/nwy_test_cli_network.obj
 .rodata.scan_net_rat_mode.str1.1
                0x00000000      0x10d CMakeFiles/nwy_open_app.dir/nwy_test_demo/nwy_test_cli/modules/nwy_test_cli_network.obj
 .text.scan_net_rat_mode
                0x00000000       0xfc CMakeFiles/nwy_open_app.dir/nwy_test_demo/nwy_test_cli/modules/nwy_test_cli_network.obj
 .text.nwy_network_util_get_oper_type
                0x00000000       0x98 CMakeFiles/nwy_open_app.dir/nwy_test_demo/nwy_test_cli/modules/nwy_test_cli_network.obj
 .rodata.nwy_network_test_scan_cb.str1.1
                0x00000000       0xa7 CMakeFiles/nwy_open_app.dir/nwy_test_demo/nwy_test_cli/modules/nwy_test_cli_network.obj
 .text.nwy_network_test_scan_cb
                0x00000000       0xec CMakeFiles/nwy_open_app.dir/nwy_test_demo/nwy_test_cli/modules/nwy_test_cli_network.obj
 .rodata.nwy_test_network_ind_callback.str1.1
                0x00000000      0x101 CMakeFiles/nwy_open_app.dir/nwy_test_demo/nwy_test_cli/modules/nwy_test_cli_network.obj
 .text.nwy_test_network_ind_callback
                0x00000000       0xec CMakeFiles/nwy_open_app.dir/nwy_test_demo/nwy_test_cli/modules/nwy_test_cli_network.obj
 .rodata.nwy_test_cli_nw_get_mode.str1.1
                0x00000000      0x10e CMakeFiles/nwy_open_app.dir/nwy_test_demo/nwy_test_cli/modules/nwy_test_cli_network.obj
 .text.nwy_test_cli_nw_get_mode
                0x00000000       0xac CMakeFiles/nwy_open_app.dir/nwy_test_demo/nwy_test_cli/modules/nwy_test_cli_network.obj
 .rodata.nwy_test_cli_nw_set_mode.str1.1
                0x00000000       0x4b CMakeFiles/nwy_open_app.dir/nwy_test_demo/nwy_test_cli/modules/nwy_test_cli_network.obj
 .text.nwy_test_cli_nw_set_mode
                0x00000000       0x50 CMakeFiles/nwy_open_app.dir/nwy_test_demo/nwy_test_cli/modules/nwy_test_cli_network.obj
 .rodata.nwy_test_cli_nw_get_priband.str1.1
                0x00000000       0x60 CMakeFiles/nwy_open_app.dir/nwy_test_demo/nwy_test_cli/modules/nwy_test_cli_network.obj
 .text.nwy_test_cli_nw_get_priband
                0x00000000       0xc4 CMakeFiles/nwy_open_app.dir/nwy_test_demo/nwy_test_cli/modules/nwy_test_cli_network.obj
 .rodata.nwy_test_cli_nw_set_priband.str1.1
                0x00000000       0xb1 CMakeFiles/nwy_open_app.dir/nwy_test_demo/nwy_test_cli/modules/nwy_test_cli_network.obj
 .text.nwy_test_cli_nw_set_priband
                0x00000000       0xa8 CMakeFiles/nwy_open_app.dir/nwy_test_demo/nwy_test_cli/modules/nwy_test_cli_network.obj
 .rodata.nwy_test_cli_nw_get_ims_mode.str1.1
                0x00000000       0x5e CMakeFiles/nwy_open_app.dir/nwy_test_demo/nwy_test_cli/modules/nwy_test_cli_network.obj
 .text.nwy_test_cli_nw_get_ims_mode
                0x00000000       0x54 CMakeFiles/nwy_open_app.dir/nwy_test_demo/nwy_test_cli/modules/nwy_test_cli_network.obj
 .rodata.nwy_test_cli_nw_set_ims_mode.str1.1
                0x00000000       0x64 CMakeFiles/nwy_open_app.dir/nwy_test_demo/nwy_test_cli/modules/nwy_test_cli_network.obj
 .text.nwy_test_cli_nw_set_ims_mode
                0x00000000       0x58 CMakeFiles/nwy_open_app.dir/nwy_test_demo/nwy_test_cli/modules/nwy_test_cli_network.obj
 .rodata.nwy_test_cli_nw_get_radio_mode.str1.1
                0x00000000       0x32 CMakeFiles/nwy_open_app.dir/nwy_test_demo/nwy_test_cli/modules/nwy_test_cli_network.obj
 .text.nwy_test_cli_nw_get_radio_mode
                0x00000000       0x44 CMakeFiles/nwy_open_app.dir/nwy_test_demo/nwy_test_cli/modules/nwy_test_cli_network.obj
 .rodata.nwy_test_cli_nw_set_radio_mode.str1.1
                0x00000000       0x6e CMakeFiles/nwy_open_app.dir/nwy_test_demo/nwy_test_cli/modules/nwy_test_cli_network.obj
 .text.nwy_test_cli_nw_set_radio_mode
                0x00000000       0x44 CMakeFiles/nwy_open_app.dir/nwy_test_demo/nwy_test_cli/modules/nwy_test_cli_network.obj
 .rodata.nwy_test_cli_nw_get_edrx_info.str1.1
                0x00000000       0x2c CMakeFiles/nwy_open_app.dir/nwy_test_demo/nwy_test_cli/modules/nwy_test_cli_network.obj
 .text.nwy_test_cli_nw_get_edrx_info
                0x00000000        0xc CMakeFiles/nwy_open_app.dir/nwy_test_demo/nwy_test_cli/modules/nwy_test_cli_network.obj
 .text.nwy_test_cli_nw_set_edrx_info
                0x00000000        0x4 CMakeFiles/nwy_open_app.dir/nwy_test_demo/nwy_test_cli/modules/nwy_test_cli_network.obj
 .rodata.nwy_test_cli_nw_get_psm_info.str1.1
                0x00000000       0x3b CMakeFiles/nwy_open_app.dir/nwy_test_demo/nwy_test_cli/modules/nwy_test_cli_network.obj
 .text.nwy_test_cli_nw_get_psm_info
                0x00000000       0x5c CMakeFiles/nwy_open_app.dir/nwy_test_demo/nwy_test_cli/modules/nwy_test_cli_network.obj
 .rodata.nwy_test_cli_nw_set_psm_info.str1.1
                0x00000000       0xba CMakeFiles/nwy_open_app.dir/nwy_test_demo/nwy_test_cli/modules/nwy_test_cli_network.obj
 .text.nwy_test_cli_nw_set_psm_info
                0x00000000       0x88 CMakeFiles/nwy_open_app.dir/nwy_test_demo/nwy_test_cli/modules/nwy_test_cli_network.obj
 .rodata.nwy_test_cli_nw_get_custom_cfg.str1.1
                0x00000000      0x169 CMakeFiles/nwy_open_app.dir/nwy_test_demo/nwy_test_cli/modules/nwy_test_cli_network.obj
 .text.nwy_test_cli_nw_get_custom_cfg
                0x00000000      0x1bc CMakeFiles/nwy_open_app.dir/nwy_test_demo/nwy_test_cli/modules/nwy_test_cli_network.obj
 .rodata.nwy_test_cli_nw_set_custom_cfg.str1.1
                0x00000000      0x1b5 CMakeFiles/nwy_open_app.dir/nwy_test_demo/nwy_test_cli/modules/nwy_test_cli_network.obj
 .text.nwy_test_cli_nw_set_custom_cfg
                0x00000000      0x14c CMakeFiles/nwy_open_app.dir/nwy_test_demo/nwy_test_cli/modules/nwy_test_cli_network.obj
 .rodata.nwy_test_cli_nw_get_oper_info.str1.1
                0x00000000       0x6f CMakeFiles/nwy_open_app.dir/nwy_test_demo/nwy_test_cli/modules/nwy_test_cli_network.obj
 .text.nwy_test_cli_nw_get_oper_info
                0x00000000       0x74 CMakeFiles/nwy_open_app.dir/nwy_test_demo/nwy_test_cli/modules/nwy_test_cli_network.obj
 .rodata.nwy_test_cli_nw_get_csq.str1.1
                0x00000000       0x1c CMakeFiles/nwy_open_app.dir/nwy_test_demo/nwy_test_cli/modules/nwy_test_cli_network.obj
 .text.nwy_test_cli_nw_get_csq
                0x00000000       0x58 CMakeFiles/nwy_open_app.dir/nwy_test_demo/nwy_test_cli/modules/nwy_test_cli_network.obj
 .rodata.nwy_test_cli_nw_get_signal_info.str1.1
                0x00000000       0xb1 CMakeFiles/nwy_open_app.dir/nwy_test_demo/nwy_test_cli/modules/nwy_test_cli_network.obj
 .text.nwy_test_cli_nw_get_signal_info
                0x00000000       0xb4 CMakeFiles/nwy_open_app.dir/nwy_test_demo/nwy_test_cli/modules/nwy_test_cli_network.obj
 .rodata.nwy_test_cli_nw_reg_info.str1.1
                0x00000000       0xe6 CMakeFiles/nwy_open_app.dir/nwy_test_demo/nwy_test_cli/modules/nwy_test_cli_network.obj
 .text.nwy_test_cli_nw_reg_info
                0x00000000       0xa8 CMakeFiles/nwy_open_app.dir/nwy_test_demo/nwy_test_cli/modules/nwy_test_cli_network.obj
 .rodata.nwy_test_cli_nw_get_cellinfo.str1.1
                0x00000000      0x37e CMakeFiles/nwy_open_app.dir/nwy_test_demo/nwy_test_cli/modules/nwy_test_cli_network.obj
 .text.nwy_test_cli_nw_get_cellinfo
                0x00000000      0x19c CMakeFiles/nwy_open_app.dir/nwy_test_demo/nwy_test_cli/modules/nwy_test_cli_network.obj
 .rodata.nwy_test_cli_nw_set_lock.str1.1
                0x00000000      0x148 CMakeFiles/nwy_open_app.dir/nwy_test_demo/nwy_test_cli/modules/nwy_test_cli_network.obj
 .text.nwy_test_cli_nw_set_lock
                0x00000000      0x120 CMakeFiles/nwy_open_app.dir/nwy_test_demo/nwy_test_cli/modules/nwy_test_cli_network.obj
 .rodata.nwy_test_cli_nw_get_lock.str1.1
                0x00000000       0xc3 CMakeFiles/nwy_open_app.dir/nwy_test_demo/nwy_test_cli/modules/nwy_test_cli_network.obj
 .text.nwy_test_cli_nw_get_lock
                0x00000000      0x11c CMakeFiles/nwy_open_app.dir/nwy_test_demo/nwy_test_cli/modules/nwy_test_cli_network.obj
 .rodata.nwy_network_test_nw_select.str1.1
                0x00000000      0x105 CMakeFiles/nwy_open_app.dir/nwy_test_demo/nwy_test_cli/modules/nwy_test_cli_network.obj
 .text.nwy_network_test_nw_select
                0x00000000      0x150 CMakeFiles/nwy_open_app.dir/nwy_test_demo/nwy_test_cli/modules/nwy_test_cli_network.obj
 .rodata.nwy_test_cli_nw_manual_scan.str1.1
                0x00000000       0x55 CMakeFiles/nwy_open_app.dir/nwy_test_demo/nwy_test_cli/modules/nwy_test_cli_network.obj
 .text.nwy_test_cli_nw_manual_scan
                0x00000000       0x8c CMakeFiles/nwy_open_app.dir/nwy_test_demo/nwy_test_cli/modules/nwy_test_cli_network.obj
 .rodata.nwy_test_cli_nw_get_none_eitf.str1.1
                0x00000000       0x35 CMakeFiles/nwy_open_app.dir/nwy_test_demo/nwy_test_cli/modules/nwy_test_cli_network.obj
 .text.nwy_test_cli_nw_get_none_eitf
                0x00000000       0x38 CMakeFiles/nwy_open_app.dir/nwy_test_demo/nwy_test_cli/modules/nwy_test_cli_network.obj
 .rodata.nwy_test_cli_nw_set_none_eitf.str1.1
                0x00000000       0x63 CMakeFiles/nwy_open_app.dir/nwy_test_demo/nwy_test_cli/modules/nwy_test_cli_network.obj
 .text.nwy_test_cli_nw_set_none_eitf
                0x00000000       0x44 CMakeFiles/nwy_open_app.dir/nwy_test_demo/nwy_test_cli/modules/nwy_test_cli_network.obj
 .rodata.nwy_test_cli_nw_get_fplmn_list.str1.1
                0x00000000       0x76 CMakeFiles/nwy_open_app.dir/nwy_test_demo/nwy_test_cli/modules/nwy_test_cli_network.obj
 .text.nwy_test_cli_nw_get_fplmn_list
                0x00000000       0x9c CMakeFiles/nwy_open_app.dir/nwy_test_demo/nwy_test_cli/modules/nwy_test_cli_network.obj
 .rodata.nwy_test_cli_nw_network_ind.str1.1
                0x00000000       0x94 CMakeFiles/nwy_open_app.dir/nwy_test_demo/nwy_test_cli/modules/nwy_test_cli_network.obj
 .text.nwy_test_cli_nw_network_ind
                0x00000000       0x68 CMakeFiles/nwy_open_app.dir/nwy_test_demo/nwy_test_cli/modules/nwy_test_cli_network.obj
 .rodata.nwy_test_cli_get_time_zone_switch.str1.1
                0x00000000       0x21 CMakeFiles/nwy_open_app.dir/nwy_test_demo/nwy_test_cli/modules/nwy_test_cli_network.obj
 .text.nwy_test_cli_get_time_zone_switch
                0x00000000       0x44 CMakeFiles/nwy_open_app.dir/nwy_test_demo/nwy_test_cli/modules/nwy_test_cli_network.obj
 .rodata.nwy_test_cli_set_time_zone_switch.str1.1
                0x00000000       0x94 CMakeFiles/nwy_open_app.dir/nwy_test_demo/nwy_test_cli/modules/nwy_test_cli_network.obj
 .text.nwy_test_cli_set_time_zone_switch
                0x00000000       0x44 CMakeFiles/nwy_open_app.dir/nwy_test_demo/nwy_test_cli/modules/nwy_test_cli_network.obj
 .rodata.str1.1
                0x00000000      0x3aa CMakeFiles/nwy_open_app.dir/nwy_test_demo/nwy_test_cli/modules/nwy_test_cli_network.obj
 .bss.manul_scan_list
                0x00000000      0xf08 CMakeFiles/nwy_open_app.dir/nwy_test_demo/nwy_test_cli/modules/nwy_test_cli_network.obj
 .bss.scan_finish
                0x00000000        0x4 CMakeFiles/nwy_open_app.dir/nwy_test_demo/nwy_test_cli/modules/nwy_test_cli_network.obj
 .rodata.CSWTCH.31
                0x00000000       0x44 CMakeFiles/nwy_open_app.dir/nwy_test_demo/nwy_test_cli/modules/nwy_test_cli_network.obj
 .rodata.CSWTCH.35
                0x00000000        0xc CMakeFiles/nwy_open_app.dir/nwy_test_demo/nwy_test_cli/modules/nwy_test_cli_network.obj
 .rodata.CSWTCH.37
                0x00000000       0x28 CMakeFiles/nwy_open_app.dir/nwy_test_demo/nwy_test_cli/modules/nwy_test_cli_network.obj
 .rodata.CSWTCH.40
                0x00000000       0x5c CMakeFiles/nwy_open_app.dir/nwy_test_demo/nwy_test_cli/modules/nwy_test_cli_network.obj
 .rodata.__func__.0
                0x00000000       0x1e CMakeFiles/nwy_open_app.dir/nwy_test_demo/nwy_test_cli/modules/nwy_test_cli_network.obj
 .rodata.__func__.1
                0x00000000       0x19 CMakeFiles/nwy_open_app.dir/nwy_test_demo/nwy_test_cli/modules/nwy_test_cli_network.obj
 .rodata.cb_plmn
                0x00000000        0x6 CMakeFiles/nwy_open_app.dir/nwy_test_demo/nwy_test_cli/modules/nwy_test_cli_network.obj
 .rodata.cmcc_plmn
                0x00000000       0x36 CMakeFiles/nwy_open_app.dir/nwy_test_demo/nwy_test_cli/modules/nwy_test_cli_network.obj
 .rodata.ct_plmn
                0x00000000       0x2a CMakeFiles/nwy_open_app.dir/nwy_test_demo/nwy_test_cli/modules/nwy_test_cli_network.obj
 .rodata.scan_net_status
                0x00000000       0x10 CMakeFiles/nwy_open_app.dir/nwy_test_demo/nwy_test_cli/modules/nwy_test_cli_network.obj
 .rodata.unicom_plmn
                0x00000000       0x18 CMakeFiles/nwy_open_app.dir/nwy_test_demo/nwy_test_cli/modules/nwy_test_cli_network.obj
 .debug_info    0x00000000     0x4c57 CMakeFiles/nwy_open_app.dir/nwy_test_demo/nwy_test_cli/modules/nwy_test_cli_network.obj
 .debug_abbrev  0x00000000      0x424 CMakeFiles/nwy_open_app.dir/nwy_test_demo/nwy_test_cli/modules/nwy_test_cli_network.obj
 .debug_loc     0x00000000     0x1f5a CMakeFiles/nwy_open_app.dir/nwy_test_demo/nwy_test_cli/modules/nwy_test_cli_network.obj
 .debug_aranges
                0x00000000      0x118 CMakeFiles/nwy_open_app.dir/nwy_test_demo/nwy_test_cli/modules/nwy_test_cli_network.obj
 .debug_ranges  0x00000000      0x1e8 CMakeFiles/nwy_open_app.dir/nwy_test_demo/nwy_test_cli/modules/nwy_test_cli_network.obj
 .debug_line    0x00000000     0x1879 CMakeFiles/nwy_open_app.dir/nwy_test_demo/nwy_test_cli/modules/nwy_test_cli_network.obj
 .debug_str     0x00000000     0x2fdf CMakeFiles/nwy_open_app.dir/nwy_test_demo/nwy_test_cli/modules/nwy_test_cli_network.obj
 .comment       0x00000000       0x4a CMakeFiles/nwy_open_app.dir/nwy_test_demo/nwy_test_cli/modules/nwy_test_cli_network.obj
 .debug_frame   0x00000000      0x470 CMakeFiles/nwy_open_app.dir/nwy_test_demo/nwy_test_cli/modules/nwy_test_cli_network.obj
 .ARM.attributes
                0x00000000       0x31 CMakeFiles/nwy_open_app.dir/nwy_test_demo/nwy_test_cli/modules/nwy_test_cli_network.obj
 .text          0x00000000        0x0 CMakeFiles/nwy_open_app.dir/nwy_test_demo/nwy_test_cli/modules/nwy_test_cli_data.obj
 .data          0x00000000        0x0 CMakeFiles/nwy_open_app.dir/nwy_test_demo/nwy_test_cli/modules/nwy_test_cli_data.obj
 .bss           0x00000000        0x0 CMakeFiles/nwy_open_app.dir/nwy_test_demo/nwy_test_cli/modules/nwy_test_cli_data.obj
 .rodata.nwy_test_cli_data_cb_fun.str1.1
                0x00000000       0xf7 CMakeFiles/nwy_open_app.dir/nwy_test_demo/nwy_test_cli/modules/nwy_test_cli_data.obj
 .text.nwy_test_cli_data_cb_fun
                0x00000000       0xb0 CMakeFiles/nwy_open_app.dir/nwy_test_demo/nwy_test_cli/modules/nwy_test_cli_data.obj
 .rodata.nwy_test_cli_get_profile.str1.1
                0x00000000      0x131 CMakeFiles/nwy_open_app.dir/nwy_test_demo/nwy_test_cli/modules/nwy_test_cli_data.obj
 .text.nwy_test_cli_get_profile
                0x00000000       0xc8 CMakeFiles/nwy_open_app.dir/nwy_test_demo/nwy_test_cli/modules/nwy_test_cli_data.obj
 .rodata.nwy_test_cli_set_profile.str1.1
                0x00000000      0x256 CMakeFiles/nwy_open_app.dir/nwy_test_demo/nwy_test_cli/modules/nwy_test_cli_data.obj
 .text.nwy_test_cli_set_profile
                0x00000000      0x1dc CMakeFiles/nwy_open_app.dir/nwy_test_demo/nwy_test_cli/modules/nwy_test_cli_data.obj
 .rodata.nwy_test_cli_auto_connect_set.str1.1
                0x00000000      0x1a4 CMakeFiles/nwy_open_app.dir/nwy_test_demo/nwy_test_cli/modules/nwy_test_cli_data.obj
 .text.nwy_test_cli_auto_connect_set
                0x00000000      0x100 CMakeFiles/nwy_open_app.dir/nwy_test_demo/nwy_test_cli/modules/nwy_test_cli_data.obj
 .rodata.nwy_test_cli_data_start.str1.1
                0x00000000       0xf8 CMakeFiles/nwy_open_app.dir/nwy_test_demo/nwy_test_cli/modules/nwy_test_cli_data.obj
 .text.nwy_test_cli_data_start
                0x00000000      0x138 CMakeFiles/nwy_open_app.dir/nwy_test_demo/nwy_test_cli/modules/nwy_test_cli_data.obj
 .rodata.nwy_test_cli_data_info.str1.1
                0x00000000       0x98 CMakeFiles/nwy_open_app.dir/nwy_test_demo/nwy_test_cli/modules/nwy_test_cli_data.obj
 .text.nwy_test_cli_data_info
                0x00000000       0xb4 CMakeFiles/nwy_open_app.dir/nwy_test_demo/nwy_test_cli/modules/nwy_test_cli_data.obj
 .rodata.nwy_test_cli_data_stop.str1.1
                0x00000000       0x8c CMakeFiles/nwy_open_app.dir/nwy_test_demo/nwy_test_cli/modules/nwy_test_cli_data.obj
 .text.nwy_test_cli_data_stop
                0x00000000       0xe8 CMakeFiles/nwy_open_app.dir/nwy_test_demo/nwy_test_cli/modules/nwy_test_cli_data.obj
 .rodata.nwy_test_cli_get_dhcp_info.str1.1
                0x00000000       0xba CMakeFiles/nwy_open_app.dir/nwy_test_demo/nwy_test_cli/modules/nwy_test_cli_data.obj
 .text.nwy_test_cli_get_dhcp_info
                0x00000000       0x70 CMakeFiles/nwy_open_app.dir/nwy_test_demo/nwy_test_cli/modules/nwy_test_cli_data.obj
 .rodata.nwy_test_cli_set_dhcp_info.str1.1
                0x00000000      0x247 CMakeFiles/nwy_open_app.dir/nwy_test_demo/nwy_test_cli/modules/nwy_test_cli_data.obj
 .text.nwy_test_cli_set_dhcp_info
                0x00000000      0x128 CMakeFiles/nwy_open_app.dir/nwy_test_demo/nwy_test_cli/modules/nwy_test_cli_data.obj
 .rodata.nwy_test_cli_get_folw_info.str1.1
                0x00000000       0xcd CMakeFiles/nwy_open_app.dir/nwy_test_demo/nwy_test_cli/modules/nwy_test_cli_data.obj
 .text.nwy_test_cli_get_folw_info
                0x00000000       0xe4 CMakeFiles/nwy_open_app.dir/nwy_test_demo/nwy_test_cli/modules/nwy_test_cli_data.obj
 .rodata.nwy_test_cli_get_eps_apn.str1.1
                0x00000000       0xa5 CMakeFiles/nwy_open_app.dir/nwy_test_demo/nwy_test_cli/modules/nwy_test_cli_data.obj
 .text.nwy_test_cli_get_eps_apn
                0x00000000       0x94 CMakeFiles/nwy_open_app.dir/nwy_test_demo/nwy_test_cli/modules/nwy_test_cli_data.obj
 .rodata.nwy_test_cli_get_dns_info.str1.1
                0x00000000      0x109 CMakeFiles/nwy_open_app.dir/nwy_test_demo/nwy_test_cli/modules/nwy_test_cli_data.obj
 .text.nwy_test_cli_get_dns_info
                0x00000000      0x10c CMakeFiles/nwy_open_app.dir/nwy_test_demo/nwy_test_cli/modules/nwy_test_cli_data.obj
 .bss.current_open_dial_action
                0x00000000       0x1c CMakeFiles/nwy_open_app.dir/nwy_test_demo/nwy_test_cli/modules/nwy_test_cli_data.obj
 .bss.is_trigger_by_app
                0x00000000       0x1c CMakeFiles/nwy_open_app.dir/nwy_test_demo/nwy_test_cli/modules/nwy_test_cli_data.obj
 .bss.nwy_data_sim_id
                0x00000000        0x4 CMakeFiles/nwy_open_app.dir/nwy_test_demo/nwy_test_cli/modules/nwy_test_cli_data.obj
 .rodata.__func__.0
                0x00000000       0x1a CMakeFiles/nwy_open_app.dir/nwy_test_demo/nwy_test_cli/modules/nwy_test_cli_data.obj
 .rodata.__func__.1
                0x00000000       0x19 CMakeFiles/nwy_open_app.dir/nwy_test_demo/nwy_test_cli/modules/nwy_test_cli_data.obj
 .rodata.__func__.10
                0x00000000       0x19 CMakeFiles/nwy_open_app.dir/nwy_test_demo/nwy_test_cli/modules/nwy_test_cli_data.obj
 .rodata.__func__.11
                0x00000000       0x19 CMakeFiles/nwy_open_app.dir/nwy_test_demo/nwy_test_cli/modules/nwy_test_cli_data.obj
 .rodata.__func__.2
                0x00000000       0x1b CMakeFiles/nwy_open_app.dir/nwy_test_demo/nwy_test_cli/modules/nwy_test_cli_data.obj
 .rodata.__func__.3
                0x00000000       0x1b CMakeFiles/nwy_open_app.dir/nwy_test_demo/nwy_test_cli/modules/nwy_test_cli_data.obj
 .rodata.__func__.4
                0x00000000       0x1b CMakeFiles/nwy_open_app.dir/nwy_test_demo/nwy_test_cli/modules/nwy_test_cli_data.obj
 .rodata.__func__.5
                0x00000000       0x17 CMakeFiles/nwy_open_app.dir/nwy_test_demo/nwy_test_cli/modules/nwy_test_cli_data.obj
 .rodata.__func__.6
                0x00000000       0x17 CMakeFiles/nwy_open_app.dir/nwy_test_demo/nwy_test_cli/modules/nwy_test_cli_data.obj
 .rodata.__func__.7
                0x00000000       0x19 CMakeFiles/nwy_open_app.dir/nwy_test_demo/nwy_test_cli/modules/nwy_test_cli_data.obj
 .rodata.__func__.8
                0x00000000       0x18 CMakeFiles/nwy_open_app.dir/nwy_test_demo/nwy_test_cli/modules/nwy_test_cli_data.obj
 .rodata.__func__.9
                0x00000000       0x1e CMakeFiles/nwy_open_app.dir/nwy_test_demo/nwy_test_cli/modules/nwy_test_cli_data.obj
 .debug_info    0x00000000     0x20f7 CMakeFiles/nwy_open_app.dir/nwy_test_demo/nwy_test_cli/modules/nwy_test_cli_data.obj
 .debug_abbrev  0x00000000      0x285 CMakeFiles/nwy_open_app.dir/nwy_test_demo/nwy_test_cli/modules/nwy_test_cli_data.obj
 .debug_loc     0x00000000      0xd7b CMakeFiles/nwy_open_app.dir/nwy_test_demo/nwy_test_cli/modules/nwy_test_cli_data.obj
 .debug_aranges
                0x00000000       0x78 CMakeFiles/nwy_open_app.dir/nwy_test_demo/nwy_test_cli/modules/nwy_test_cli_data.obj
 .debug_ranges  0x00000000       0x68 CMakeFiles/nwy_open_app.dir/nwy_test_demo/nwy_test_cli/modules/nwy_test_cli_data.obj
 .debug_line    0x00000000      0xb84 CMakeFiles/nwy_open_app.dir/nwy_test_demo/nwy_test_cli/modules/nwy_test_cli_data.obj
 .debug_str     0x00000000     0x1117 CMakeFiles/nwy_open_app.dir/nwy_test_demo/nwy_test_cli/modules/nwy_test_cli_data.obj
 .comment       0x00000000       0x4a CMakeFiles/nwy_open_app.dir/nwy_test_demo/nwy_test_cli/modules/nwy_test_cli_data.obj
 .debug_frame   0x00000000      0x218 CMakeFiles/nwy_open_app.dir/nwy_test_demo/nwy_test_cli/modules/nwy_test_cli_data.obj
 .ARM.attributes
                0x00000000       0x31 CMakeFiles/nwy_open_app.dir/nwy_test_demo/nwy_test_cli/modules/nwy_test_cli_data.obj
 .text          0x00000000        0x0 CMakeFiles/nwy_open_app.dir/nwy_test_demo/nwy_test_cli/modules/nwy_test_cli_fota.obj
 .data          0x00000000        0x0 CMakeFiles/nwy_open_app.dir/nwy_test_demo/nwy_test_cli/modules/nwy_test_cli_fota.obj
 .bss           0x00000000        0x0 CMakeFiles/nwy_open_app.dir/nwy_test_demo/nwy_test_cli/modules/nwy_test_cli_fota.obj
 .rodata.nwy_test_cli_fota_trans_proc.str1.1
                0x00000000       0x1f CMakeFiles/nwy_open_app.dir/nwy_test_demo/nwy_test_cli/modules/nwy_test_cli_fota.obj
 .text.nwy_test_cli_fota_trans_proc
                0x00000000       0x64 CMakeFiles/nwy_open_app.dir/nwy_test_demo/nwy_test_cli/modules/nwy_test_cli_fota.obj
 .rodata.nwy_cli_ftp_fota_result_cb.str1.1
                0x00000000      0x3c0 CMakeFiles/nwy_open_app.dir/nwy_test_demo/nwy_test_cli/modules/nwy_test_cli_fota.obj
 .text.nwy_cli_ftp_fota_result_cb
                0x00000000      0x2a4 CMakeFiles/nwy_open_app.dir/nwy_test_demo/nwy_test_cli/modules/nwy_test_cli_fota.obj
 .rodata.nwy_test_cli_fota_local_update.str1.1
                0x00000000       0xcf CMakeFiles/nwy_open_app.dir/nwy_test_demo/nwy_test_cli/modules/nwy_test_cli_fota.obj
 .text.nwy_test_cli_fota_local_update
                0x00000000      0x124 CMakeFiles/nwy_open_app.dir/nwy_test_demo/nwy_test_cli/modules/nwy_test_cli_fota.obj
 .rodata.nwy_test_cli_ftp_fota_update.str1.1
                0x00000000      0x393 CMakeFiles/nwy_open_app.dir/nwy_test_demo/nwy_test_cli/modules/nwy_test_cli_fota.obj
 .text.nwy_test_cli_ftp_fota_update
                0x00000000      0x384 CMakeFiles/nwy_open_app.dir/nwy_test_demo/nwy_test_cli/modules/nwy_test_cli_fota.obj
 .rodata.nwy_test_cli_fota_result.str1.1
                0x00000000       0x8b CMakeFiles/nwy_open_app.dir/nwy_test_demo/nwy_test_cli/modules/nwy_test_cli_fota.obj
 .text.nwy_test_cli_fota_result
                0x00000000       0x50 CMakeFiles/nwy_open_app.dir/nwy_test_demo/nwy_test_cli/modules/nwy_test_cli_fota.obj
 .rodata.nwy_test_cli_fota_base_update.str1.1
                0x00000000      0x14a CMakeFiles/nwy_open_app.dir/nwy_test_demo/nwy_test_cli/modules/nwy_test_cli_fota.obj
 .text.nwy_test_cli_fota_base_update
                0x00000000      0x128 CMakeFiles/nwy_open_app.dir/nwy_test_demo/nwy_test_cli/modules/nwy_test_cli_fota.obj
 .bss.g_filename
                0x00000000      0x101 CMakeFiles/nwy_open_app.dir/nwy_test_demo/nwy_test_cli/modules/nwy_test_cli_fota.obj
 .bss.g_ftp_fota_handl
                0x00000000        0x4 CMakeFiles/nwy_open_app.dir/nwy_test_demo/nwy_test_cli/modules/nwy_test_cli_fota.obj
 .bss.g_ftp_get_param
                0x00000000       0x10 CMakeFiles/nwy_open_app.dir/nwy_test_demo/nwy_test_cli/modules/nwy_test_cli_fota.obj
 .bss.g_ota_pack
                0x00000000       0x10 CMakeFiles/nwy_open_app.dir/nwy_test_demo/nwy_test_cli/modules/nwy_test_cli_fota.obj
 .debug_info    0x00000000     0x17cd CMakeFiles/nwy_open_app.dir/nwy_test_demo/nwy_test_cli/modules/nwy_test_cli_fota.obj
 .debug_abbrev  0x00000000      0x29b CMakeFiles/nwy_open_app.dir/nwy_test_demo/nwy_test_cli/modules/nwy_test_cli_fota.obj
 .debug_loc     0x00000000      0x967 CMakeFiles/nwy_open_app.dir/nwy_test_demo/nwy_test_cli/modules/nwy_test_cli_fota.obj
 .debug_aranges
                0x00000000       0x48 CMakeFiles/nwy_open_app.dir/nwy_test_demo/nwy_test_cli/modules/nwy_test_cli_fota.obj
 .debug_ranges  0x00000000       0x38 CMakeFiles/nwy_open_app.dir/nwy_test_demo/nwy_test_cli/modules/nwy_test_cli_fota.obj
 .debug_line    0x00000000      0xa06 CMakeFiles/nwy_open_app.dir/nwy_test_demo/nwy_test_cli/modules/nwy_test_cli_fota.obj
 .debug_str     0x00000000     0x1039 CMakeFiles/nwy_open_app.dir/nwy_test_demo/nwy_test_cli/modules/nwy_test_cli_fota.obj
 .comment       0x00000000       0x4a CMakeFiles/nwy_open_app.dir/nwy_test_demo/nwy_test_cli/modules/nwy_test_cli_fota.obj
 .debug_frame   0x00000000      0x138 CMakeFiles/nwy_open_app.dir/nwy_test_demo/nwy_test_cli/modules/nwy_test_cli_fota.obj
 .ARM.attributes
                0x00000000       0x31 CMakeFiles/nwy_open_app.dir/nwy_test_demo/nwy_test_cli/modules/nwy_test_cli_fota.obj
 .text          0x00000000        0x0 CMakeFiles/nwy_open_app.dir/nwy_test_demo/odt_vts_application/Peripheral_Driver/driver.obj
 .data          0x00000000        0x0 CMakeFiles/nwy_open_app.dir/nwy_test_demo/odt_vts_application/Peripheral_Driver/driver.obj
 .bss           0x00000000        0x0 CMakeFiles/nwy_open_app.dir/nwy_test_demo/odt_vts_application/Peripheral_Driver/driver.obj
 .text.SiM_Init
                0x00000000       0x1c CMakeFiles/nwy_open_app.dir/nwy_test_demo/odt_vts_application/Peripheral_Driver/driver.obj
 .text.Read_SIM_Presence
                0x00000000        0xc CMakeFiles/nwy_open_app.dir/nwy_test_demo/odt_vts_application/Peripheral_Driver/driver.obj
 .text          0x00000000        0x0 CMakeFiles/nwy_open_app.dir/nwy_test_demo/odt_vts_application/Peripheral_Driver/drv_callback.obj
 .data          0x00000000        0x0 CMakeFiles/nwy_open_app.dir/nwy_test_demo/odt_vts_application/Peripheral_Driver/drv_callback.obj
 .bss           0x00000000        0x0 CMakeFiles/nwy_open_app.dir/nwy_test_demo/odt_vts_application/Peripheral_Driver/drv_callback.obj
 .rodata.Sim_Detect_Callback.str1.1
                0x00000000       0x42 CMakeFiles/nwy_open_app.dir/nwy_test_demo/odt_vts_application/Peripheral_Driver/drv_callback.obj
 .text.Sim_Detect_Callback
                0x00000000       0x40 CMakeFiles/nwy_open_app.dir/nwy_test_demo/odt_vts_application/Peripheral_Driver/drv_callback.obj
 .text          0x00000000        0x0 CMakeFiles/nwy_open_app.dir/nwy_test_demo/odt_vts_application/NET_Application/Network.obj
 .data          0x00000000        0x0 CMakeFiles/nwy_open_app.dir/nwy_test_demo/odt_vts_application/NET_Application/Network.obj
 .bss           0x00000000        0x0 CMakeFiles/nwy_open_app.dir/nwy_test_demo/odt_vts_application/NET_Application/Network.obj
 .text          0x00000000        0x0 CMakeFiles/nwy_open_app.dir/nwy_test_demo/odt_vts_application/VTS_Application/VTS_App.obj
 .data          0x00000000        0x0 CMakeFiles/nwy_open_app.dir/nwy_test_demo/odt_vts_application/VTS_Application/VTS_App.obj
 .bss           0x00000000        0x0 CMakeFiles/nwy_open_app.dir/nwy_test_demo/odt_vts_application/VTS_Application/VTS_App.obj
 .text          0x00000000        0x0 CMakeFiles/nwy_open_app.dir/nwy_test_demo/odt_vts_application/HTTP_Server/http.obj
 .data          0x00000000        0x0 CMakeFiles/nwy_open_app.dir/nwy_test_demo/odt_vts_application/HTTP_Server/http.obj
 .bss           0x00000000        0x0 CMakeFiles/nwy_open_app.dir/nwy_test_demo/odt_vts_application/HTTP_Server/http.obj
 .rodata.Parse_IOT_Server_Params.str1.1
                0x00000000      0x13d CMakeFiles/nwy_open_app.dir/nwy_test_demo/odt_vts_application/HTTP_Server/http.obj
 .text.Parse_IOT_Server_Params
                0x00000000      0x138 CMakeFiles/nwy_open_app.dir/nwy_test_demo/odt_vts_application/HTTP_Server/http.obj
 .text          0x00000000        0x0 CMakeFiles/nwy_open_app.dir/nwy_test_demo/odt_vts_application/OTA/ota.obj
 .data          0x00000000        0x0 CMakeFiles/nwy_open_app.dir/nwy_test_demo/odt_vts_application/OTA/ota.obj
 .bss           0x00000000        0x0 CMakeFiles/nwy_open_app.dir/nwy_test_demo/odt_vts_application/OTA/ota.obj
 .bss.buff      0x00000000       0x64 CMakeFiles/nwy_open_app.dir/nwy_test_demo/odt_vts_application/OTA/ota.obj
 .bss.echoo_buff
                0x00000000      0x401 CMakeFiles/nwy_open_app.dir/nwy_test_demo/odt_vts_application/OTA/ota.obj
 .text          0x00000000        0x0 CMakeFiles/nwy_open_app.dir/nwy_test_demo/odt_vts_application/SMS/sms.obj
 .data          0x00000000        0x0 CMakeFiles/nwy_open_app.dir/nwy_test_demo/odt_vts_application/SMS/sms.obj
 .bss           0x00000000        0x0 CMakeFiles/nwy_open_app.dir/nwy_test_demo/odt_vts_application/SMS/sms.obj
 .text          0x00000000        0x0 CMakeFiles/nwy_open_app.dir/nwy_test_demo/odt_vts_application/Flash/flash.obj
 .data          0x00000000        0x0 CMakeFiles/nwy_open_app.dir/nwy_test_demo/odt_vts_application/Flash/flash.obj
 .bss           0x00000000        0x0 CMakeFiles/nwy_open_app.dir/nwy_test_demo/odt_vts_application/Flash/flash.obj
 __ARM_asm.debug_abbrev
                0x00000000        0x8 ../build/nwy_open_stub.a(nwy_open.o)
 __ARM_cc..debug_abbrev.group.2_Qm0000_67g8QvEltX8_000000
                0x00000000        0x8 ../build/nwy_open_stub.a(nwy_open_stub.o)
 __ARM_cc.nwy_baseline_version.h.2_Av0000_HXqOM2RX$S1_200000
                0x00000000       0x10 ../build/nwy_open_stub.a(nwy_open_stub.o)
 __ARM_cc.nwy_cust.h.2_eB0000_mKnPuo88TC0_200000
                0x00000000       0x10 ../build/nwy_open_stub.a(nwy_open_stub.o)
 __ARM_cc.nwy_open_api_list.h.2_Hq0000_dmwXULy$i1a_200000
                0x00000000        0xc ../build/nwy_open_stub.a(nwy_open_stub.o)
 __ARM_cc.nwy_open_stub.c.2_8x1000_hcpD5Ok4GX9_700000
                0x00000000       0x14 ../build/nwy_open_stub.a(nwy_open_stub.o)
 .text          0x00000000        0x0 ../tools/GNU_Arm_Toolchain/arm-none-eabi/lib/thumb/v7/nofp/libc.a(lib_a-atoi.o)
 .data          0x00000000        0x0 ../tools/GNU_Arm_Toolchain/arm-none-eabi/lib/thumb/v7/nofp/libc.a(lib_a-atoi.o)
 .bss           0x00000000        0x0 ../tools/GNU_Arm_Toolchain/arm-none-eabi/lib/thumb/v7/nofp/libc.a(lib_a-atoi.o)
 .text._atoi_r  0x00000000        0x8 ../tools/GNU_Arm_Toolchain/arm-none-eabi/lib/thumb/v7/nofp/libc.a(lib_a-atoi.o)
 .text          0x00000000        0x0 ../tools/GNU_Arm_Toolchain/arm-none-eabi/lib/thumb/v7/nofp/libc.a(lib_a-atol.o)
 .data          0x00000000        0x0 ../tools/GNU_Arm_Toolchain/arm-none-eabi/lib/thumb/v7/nofp/libc.a(lib_a-atol.o)
 .bss           0x00000000        0x0 ../tools/GNU_Arm_Toolchain/arm-none-eabi/lib/thumb/v7/nofp/libc.a(lib_a-atol.o)
 .text.atol     0x00000000        0x8 ../tools/GNU_Arm_Toolchain/arm-none-eabi/lib/thumb/v7/nofp/libc.a(lib_a-atol.o)
 .text._atol_r  0x00000000        0x8 ../tools/GNU_Arm_Toolchain/arm-none-eabi/lib/thumb/v7/nofp/libc.a(lib_a-atol.o)
 .debug_frame   0x00000000       0x30 ../tools/GNU_Arm_Toolchain/arm-none-eabi/lib/thumb/v7/nofp/libc.a(lib_a-atol.o)
 .ARM.attributes
                0x00000000       0x29 ../tools/GNU_Arm_Toolchain/arm-none-eabi/lib/thumb/v7/nofp/libc.a(lib_a-atol.o)
 .data          0x00000000        0x0 ../tools/GNU_Arm_Toolchain/arm-none-eabi/lib/thumb/v7/nofp/libc.a(lib_a-memcpy.o)
 .bss           0x00000000        0x0 ../tools/GNU_Arm_Toolchain/arm-none-eabi/lib/thumb/v7/nofp/libc.a(lib_a-memcpy.o)
 .text          0x00000000        0x0 ../tools/GNU_Arm_Toolchain/arm-none-eabi/lib/thumb/v7/nofp/libc.a(lib_a-memset.o)
 .data          0x00000000        0x0 ../tools/GNU_Arm_Toolchain/arm-none-eabi/lib/thumb/v7/nofp/libc.a(lib_a-memset.o)
 .bss           0x00000000        0x0 ../tools/GNU_Arm_Toolchain/arm-none-eabi/lib/thumb/v7/nofp/libc.a(lib_a-memset.o)
 .text          0x00000000        0x0 ../tools/GNU_Arm_Toolchain/arm-none-eabi/lib/thumb/v7/nofp/libc.a(lib_a-printf.o)
 .data          0x00000000        0x0 ../tools/GNU_Arm_Toolchain/arm-none-eabi/lib/thumb/v7/nofp/libc.a(lib_a-printf.o)
 .bss           0x00000000        0x0 ../tools/GNU_Arm_Toolchain/arm-none-eabi/lib/thumb/v7/nofp/libc.a(lib_a-printf.o)
 .text._printf_r
                0x00000000       0x20 ../tools/GNU_Arm_Toolchain/arm-none-eabi/lib/thumb/v7/nofp/libc.a(lib_a-printf.o)
 .text.printf   0x00000000       0x28 ../tools/GNU_Arm_Toolchain/arm-none-eabi/lib/thumb/v7/nofp/libc.a(lib_a-printf.o)
 .debug_frame   0x00000000       0x74 ../tools/GNU_Arm_Toolchain/arm-none-eabi/lib/thumb/v7/nofp/libc.a(lib_a-printf.o)
 .ARM.attributes
                0x00000000       0x29 ../tools/GNU_Arm_Toolchain/arm-none-eabi/lib/thumb/v7/nofp/libc.a(lib_a-printf.o)
 .text          0x00000000        0x0 ../tools/GNU_Arm_Toolchain/arm-none-eabi/lib/thumb/v7/nofp/libc.a(lib_a-snprintf.o)
 .data          0x00000000        0x0 ../tools/GNU_Arm_Toolchain/arm-none-eabi/lib/thumb/v7/nofp/libc.a(lib_a-snprintf.o)
 .bss           0x00000000        0x0 ../tools/GNU_Arm_Toolchain/arm-none-eabi/lib/thumb/v7/nofp/libc.a(lib_a-snprintf.o)
 .text._snprintf_r
                0x00000000       0x84 ../tools/GNU_Arm_Toolchain/arm-none-eabi/lib/thumb/v7/nofp/libc.a(lib_a-snprintf.o)
 .text          0x00000000        0x0 ../tools/GNU_Arm_Toolchain/arm-none-eabi/lib/thumb/v7/nofp/libc.a(lib_a-sprintf.o)
 .data          0x00000000        0x0 ../tools/GNU_Arm_Toolchain/arm-none-eabi/lib/thumb/v7/nofp/libc.a(lib_a-sprintf.o)
 .bss           0x00000000        0x0 ../tools/GNU_Arm_Toolchain/arm-none-eabi/lib/thumb/v7/nofp/libc.a(lib_a-sprintf.o)
 .text._sprintf_r
                0x00000000       0x3c ../tools/GNU_Arm_Toolchain/arm-none-eabi/lib/thumb/v7/nofp/libc.a(lib_a-sprintf.o)
 .text          0x00000000        0x0 ../tools/GNU_Arm_Toolchain/arm-none-eabi/lib/thumb/v7/nofp/libc.a(lib_a-sscanf.o)
 .data          0x00000000        0x0 ../tools/GNU_Arm_Toolchain/arm-none-eabi/lib/thumb/v7/nofp/libc.a(lib_a-sscanf.o)
 .bss           0x00000000        0x0 ../tools/GNU_Arm_Toolchain/arm-none-eabi/lib/thumb/v7/nofp/libc.a(lib_a-sscanf.o)
 .text._sscanf_r
                0x00000000       0x58 ../tools/GNU_Arm_Toolchain/arm-none-eabi/lib/thumb/v7/nofp/libc.a(lib_a-sscanf.o)
 .text          0x00000000        0x0 ../tools/GNU_Arm_Toolchain/arm-none-eabi/lib/thumb/v7/nofp/libc.a(lib_a-stdio.o)
 .data          0x00000000        0x0 ../tools/GNU_Arm_Toolchain/arm-none-eabi/lib/thumb/v7/nofp/libc.a(lib_a-stdio.o)
 .bss           0x00000000        0x0 ../tools/GNU_Arm_Toolchain/arm-none-eabi/lib/thumb/v7/nofp/libc.a(lib_a-stdio.o)
 .text          0x00000000        0x0 ../tools/GNU_Arm_Toolchain/arm-none-eabi/lib/thumb/v7/nofp/libc.a(lib_a-strcat.o)
 .data          0x00000000        0x0 ../tools/GNU_Arm_Toolchain/arm-none-eabi/lib/thumb/v7/nofp/libc.a(lib_a-strcat.o)
 .bss           0x00000000        0x0 ../tools/GNU_Arm_Toolchain/arm-none-eabi/lib/thumb/v7/nofp/libc.a(lib_a-strcat.o)
 .text          0x00000000        0x0 ../tools/GNU_Arm_Toolchain/arm-none-eabi/lib/thumb/v7/nofp/libc.a(lib_a-strchr.o)
 .data          0x00000000        0x0 ../tools/GNU_Arm_Toolchain/arm-none-eabi/lib/thumb/v7/nofp/libc.a(lib_a-strchr.o)
 .bss           0x00000000        0x0 ../tools/GNU_Arm_Toolchain/arm-none-eabi/lib/thumb/v7/nofp/libc.a(lib_a-strchr.o)
 .data          0x00000000        0x0 ../tools/GNU_Arm_Toolchain/arm-none-eabi/lib/thumb/v7/nofp/libc.a(lib_a-strcmp.o)
 .bss           0x00000000        0x0 ../tools/GNU_Arm_Toolchain/arm-none-eabi/lib/thumb/v7/nofp/libc.a(lib_a-strcmp.o)
 .text          0x00000000        0x0 ../tools/GNU_Arm_Toolchain/arm-none-eabi/lib/thumb/v7/nofp/libc.a(lib_a-strcpy.o)
 .data          0x00000000        0x0 ../tools/GNU_Arm_Toolchain/arm-none-eabi/lib/thumb/v7/nofp/libc.a(lib_a-strcpy.o)
 .bss           0x00000000        0x0 ../tools/GNU_Arm_Toolchain/arm-none-eabi/lib/thumb/v7/nofp/libc.a(lib_a-strcpy.o)
 .text          0x00000000        0x0 ../tools/GNU_Arm_Toolchain/arm-none-eabi/lib/thumb/v7/nofp/libc.a(lib_a-strlen-stub.o)
 .data          0x00000000        0x0 ../tools/GNU_Arm_Toolchain/arm-none-eabi/lib/thumb/v7/nofp/libc.a(lib_a-strlen-stub.o)
 .bss           0x00000000        0x0 ../tools/GNU_Arm_Toolchain/arm-none-eabi/lib/thumb/v7/nofp/libc.a(lib_a-strlen-stub.o)
 .text          0x00000000        0x0 ../tools/GNU_Arm_Toolchain/arm-none-eabi/lib/thumb/v7/nofp/libc.a(lib_a-strncmp.o)
 .data          0x00000000        0x0 ../tools/GNU_Arm_Toolchain/arm-none-eabi/lib/thumb/v7/nofp/libc.a(lib_a-strncmp.o)
 .bss           0x00000000        0x0 ../tools/GNU_Arm_Toolchain/arm-none-eabi/lib/thumb/v7/nofp/libc.a(lib_a-strncmp.o)
 .text          0x00000000        0x0 ../tools/GNU_Arm_Toolchain/arm-none-eabi/lib/thumb/v7/nofp/libc.a(lib_a-strncpy.o)
 .data          0x00000000        0x0 ../tools/GNU_Arm_Toolchain/arm-none-eabi/lib/thumb/v7/nofp/libc.a(lib_a-strncpy.o)
 .bss           0x00000000        0x0 ../tools/GNU_Arm_Toolchain/arm-none-eabi/lib/thumb/v7/nofp/libc.a(lib_a-strncpy.o)
 .text          0x00000000        0x0 ../tools/GNU_Arm_Toolchain/arm-none-eabi/lib/thumb/v7/nofp/libc.a(lib_a-strrchr.o)
 .data          0x00000000        0x0 ../tools/GNU_Arm_Toolchain/arm-none-eabi/lib/thumb/v7/nofp/libc.a(lib_a-strrchr.o)
 .bss           0x00000000        0x0 ../tools/GNU_Arm_Toolchain/arm-none-eabi/lib/thumb/v7/nofp/libc.a(lib_a-strrchr.o)
 .text.strrchr  0x00000000       0x24 ../tools/GNU_Arm_Toolchain/arm-none-eabi/lib/thumb/v7/nofp/libc.a(lib_a-strrchr.o)
 .debug_frame   0x00000000       0x34 ../tools/GNU_Arm_Toolchain/arm-none-eabi/lib/thumb/v7/nofp/libc.a(lib_a-strrchr.o)
 .ARM.attributes
                0x00000000       0x29 ../tools/GNU_Arm_Toolchain/arm-none-eabi/lib/thumb/v7/nofp/libc.a(lib_a-strrchr.o)
 .text          0x00000000        0x0 ../tools/GNU_Arm_Toolchain/arm-none-eabi/lib/thumb/v7/nofp/libc.a(lib_a-strstr.o)
 .data          0x00000000        0x0 ../tools/GNU_Arm_Toolchain/arm-none-eabi/lib/thumb/v7/nofp/libc.a(lib_a-strstr.o)
 .bss           0x00000000        0x0 ../tools/GNU_Arm_Toolchain/arm-none-eabi/lib/thumb/v7/nofp/libc.a(lib_a-strstr.o)
 .text          0x00000000        0x0 ../tools/GNU_Arm_Toolchain/arm-none-eabi/lib/thumb/v7/nofp/libc.a(lib_a-strtok.o)
 .data          0x00000000        0x0 ../tools/GNU_Arm_Toolchain/arm-none-eabi/lib/thumb/v7/nofp/libc.a(lib_a-strtok.o)
 .bss           0x00000000        0x0 ../tools/GNU_Arm_Toolchain/arm-none-eabi/lib/thumb/v7/nofp/libc.a(lib_a-strtok.o)
 .text.strtok   0x00000000       0x14 ../tools/GNU_Arm_Toolchain/arm-none-eabi/lib/thumb/v7/nofp/libc.a(lib_a-strtok.o)
 .debug_frame   0x00000000       0x20 ../tools/GNU_Arm_Toolchain/arm-none-eabi/lib/thumb/v7/nofp/libc.a(lib_a-strtok.o)
 .ARM.attributes
                0x00000000       0x29 ../tools/GNU_Arm_Toolchain/arm-none-eabi/lib/thumb/v7/nofp/libc.a(lib_a-strtok.o)
 .text          0x00000000        0x0 ../tools/GNU_Arm_Toolchain/arm-none-eabi/lib/thumb/v7/nofp/libc.a(lib_a-strtok_r.o)
 .data          0x00000000        0x0 ../tools/GNU_Arm_Toolchain/arm-none-eabi/lib/thumb/v7/nofp/libc.a(lib_a-strtok_r.o)
 .bss           0x00000000        0x0 ../tools/GNU_Arm_Toolchain/arm-none-eabi/lib/thumb/v7/nofp/libc.a(lib_a-strtok_r.o)
 .text.__strtok_r
                0x00000000       0x68 ../tools/GNU_Arm_Toolchain/arm-none-eabi/lib/thumb/v7/nofp/libc.a(lib_a-strtok_r.o)
 .text.strtok_r
                0x00000000        0x8 ../tools/GNU_Arm_Toolchain/arm-none-eabi/lib/thumb/v7/nofp/libc.a(lib_a-strtok_r.o)
 .debug_frame   0x00000000       0x50 ../tools/GNU_Arm_Toolchain/arm-none-eabi/lib/thumb/v7/nofp/libc.a(lib_a-strtok_r.o)
 .ARM.attributes
                0x00000000       0x29 ../tools/GNU_Arm_Toolchain/arm-none-eabi/lib/thumb/v7/nofp/libc.a(lib_a-strtok_r.o)
 .text          0x00000000        0x0 ../tools/GNU_Arm_Toolchain/arm-none-eabi/lib/thumb/v7/nofp/libc.a(lib_a-strtol.o)
 .data          0x00000000        0x0 ../tools/GNU_Arm_Toolchain/arm-none-eabi/lib/thumb/v7/nofp/libc.a(lib_a-strtol.o)
 .bss           0x00000000        0x0 ../tools/GNU_Arm_Toolchain/arm-none-eabi/lib/thumb/v7/nofp/libc.a(lib_a-strtol.o)
 .text.strtol_l
                0x00000000       0x40 ../tools/GNU_Arm_Toolchain/arm-none-eabi/lib/thumb/v7/nofp/libc.a(lib_a-strtol.o)
 .text          0x00000000        0x0 ../tools/GNU_Arm_Toolchain/arm-none-eabi/lib/thumb/v7/nofp/libc.a(lib_a-svfprintf.o)
 .data          0x00000000        0x0 ../tools/GNU_Arm_Toolchain/arm-none-eabi/lib/thumb/v7/nofp/libc.a(lib_a-svfprintf.o)
 .bss           0x00000000        0x0 ../tools/GNU_Arm_Toolchain/arm-none-eabi/lib/thumb/v7/nofp/libc.a(lib_a-svfprintf.o)
 .text          0x00000000        0x0 ../tools/GNU_Arm_Toolchain/arm-none-eabi/lib/thumb/v7/nofp/libc.a(lib_a-svfscanf.o)
 .data          0x00000000        0x0 ../tools/GNU_Arm_Toolchain/arm-none-eabi/lib/thumb/v7/nofp/libc.a(lib_a-svfscanf.o)
 .bss           0x00000000        0x0 ../tools/GNU_Arm_Toolchain/arm-none-eabi/lib/thumb/v7/nofp/libc.a(lib_a-svfscanf.o)
 .text          0x00000000        0x0 ../tools/GNU_Arm_Toolchain/arm-none-eabi/lib/thumb/v7/nofp/libc.a(lib_a-vfprintf.o)
 .data          0x00000000        0x0 ../tools/GNU_Arm_Toolchain/arm-none-eabi/lib/thumb/v7/nofp/libc.a(lib_a-vfprintf.o)
 .bss           0x00000000        0x0 ../tools/GNU_Arm_Toolchain/arm-none-eabi/lib/thumb/v7/nofp/libc.a(lib_a-vfprintf.o)
 .rodata._vfprintf_r.str1.4
                0x00000000       0x42 ../tools/GNU_Arm_Toolchain/arm-none-eabi/lib/thumb/v7/nofp/libc.a(lib_a-vfprintf.o)
 .text._vfprintf_r
                0x00000000     0x1bbc ../tools/GNU_Arm_Toolchain/arm-none-eabi/lib/thumb/v7/nofp/libc.a(lib_a-vfprintf.o)
 .text.vfprintf
                0x00000000       0x20 ../tools/GNU_Arm_Toolchain/arm-none-eabi/lib/thumb/v7/nofp/libc.a(lib_a-vfprintf.o)
 .text.__sbprintf
                0x00000000       0x80 ../tools/GNU_Arm_Toolchain/arm-none-eabi/lib/thumb/v7/nofp/libc.a(lib_a-vfprintf.o)
 .rodata.blanks.1
                0x00000000       0x10 ../tools/GNU_Arm_Toolchain/arm-none-eabi/lib/thumb/v7/nofp/libc.a(lib_a-vfprintf.o)
 .rodata.zeroes.0
                0x00000000       0x10 ../tools/GNU_Arm_Toolchain/arm-none-eabi/lib/thumb/v7/nofp/libc.a(lib_a-vfprintf.o)
 .debug_frame   0x00000000       0x98 ../tools/GNU_Arm_Toolchain/arm-none-eabi/lib/thumb/v7/nofp/libc.a(lib_a-vfprintf.o)
 .ARM.attributes
                0x00000000       0x29 ../tools/GNU_Arm_Toolchain/arm-none-eabi/lib/thumb/v7/nofp/libc.a(lib_a-vfprintf.o)
 .text          0x00000000        0x0 ../tools/GNU_Arm_Toolchain/arm-none-eabi/lib/thumb/v7/nofp/libc.a(lib_a-vsnprintf.o)
 .data          0x00000000        0x0 ../tools/GNU_Arm_Toolchain/arm-none-eabi/lib/thumb/v7/nofp/libc.a(lib_a-vsnprintf.o)
 .bss           0x00000000        0x0 ../tools/GNU_Arm_Toolchain/arm-none-eabi/lib/thumb/v7/nofp/libc.a(lib_a-vsnprintf.o)
 .text._vsnprintf_r
                0x00000000       0x70 ../tools/GNU_Arm_Toolchain/arm-none-eabi/lib/thumb/v7/nofp/libc.a(lib_a-vsnprintf.o)
 .text          0x00000000        0x0 ../tools/GNU_Arm_Toolchain/arm-none-eabi/lib/thumb/v7/nofp/libc.a(lib_a-vsprintf.o)
 .data          0x00000000        0x0 ../tools/GNU_Arm_Toolchain/arm-none-eabi/lib/thumb/v7/nofp/libc.a(lib_a-vsprintf.o)
 .bss           0x00000000        0x0 ../tools/GNU_Arm_Toolchain/arm-none-eabi/lib/thumb/v7/nofp/libc.a(lib_a-vsprintf.o)
 .text.vsprintf
                0x00000000       0x40 ../tools/GNU_Arm_Toolchain/arm-none-eabi/lib/thumb/v7/nofp/libc.a(lib_a-vsprintf.o)
 .text._vsprintf_r
                0x00000000       0x2c ../tools/GNU_Arm_Toolchain/arm-none-eabi/lib/thumb/v7/nofp/libc.a(lib_a-vsprintf.o)
 .debug_frame   0x00000000       0x50 ../tools/GNU_Arm_Toolchain/arm-none-eabi/lib/thumb/v7/nofp/libc.a(lib_a-vsprintf.o)
 .ARM.attributes
                0x00000000       0x29 ../tools/GNU_Arm_Toolchain/arm-none-eabi/lib/thumb/v7/nofp/libc.a(lib_a-vsprintf.o)
 .text          0x00000000        0x0 ../tools/GNU_Arm_Toolchain/arm-none-eabi/lib/thumb/v7/nofp/libc.a(lib_a-writer.o)
 .data          0x00000000        0x0 ../tools/GNU_Arm_Toolchain/arm-none-eabi/lib/thumb/v7/nofp/libc.a(lib_a-writer.o)
 .bss           0x00000000        0x0 ../tools/GNU_Arm_Toolchain/arm-none-eabi/lib/thumb/v7/nofp/libc.a(lib_a-writer.o)
 .text          0x00000000        0x0 ../tools/GNU_Arm_Toolchain/arm-none-eabi/lib/thumb/v7/nofp/libc.a(lib_a-wsetup.o)
 .data          0x00000000        0x0 ../tools/GNU_Arm_Toolchain/arm-none-eabi/lib/thumb/v7/nofp/libc.a(lib_a-wsetup.o)
 .bss           0x00000000        0x0 ../tools/GNU_Arm_Toolchain/arm-none-eabi/lib/thumb/v7/nofp/libc.a(lib_a-wsetup.o)
 .text          0x00000000        0x0 ../tools/GNU_Arm_Toolchain/arm-none-eabi/lib/thumb/v7/nofp/libc.a(lib_a-closer.o)
 .data          0x00000000        0x0 ../tools/GNU_Arm_Toolchain/arm-none-eabi/lib/thumb/v7/nofp/libc.a(lib_a-closer.o)
 .bss           0x00000000        0x0 ../tools/GNU_Arm_Toolchain/arm-none-eabi/lib/thumb/v7/nofp/libc.a(lib_a-closer.o)
 .text          0x00000000        0x0 ../tools/GNU_Arm_Toolchain/arm-none-eabi/lib/thumb/v7/nofp/libc.a(lib_a-ctype_.o)
 .data          0x00000000        0x0 ../tools/GNU_Arm_Toolchain/arm-none-eabi/lib/thumb/v7/nofp/libc.a(lib_a-ctype_.o)
 .bss           0x00000000        0x0 ../tools/GNU_Arm_Toolchain/arm-none-eabi/lib/thumb/v7/nofp/libc.a(lib_a-ctype_.o)
 .text          0x00000000        0x0 ../tools/GNU_Arm_Toolchain/arm-none-eabi/lib/thumb/v7/nofp/libc.a(lib_a-dtoa.o)
 .data          0x00000000        0x0 ../tools/GNU_Arm_Toolchain/arm-none-eabi/lib/thumb/v7/nofp/libc.a(lib_a-dtoa.o)
 .bss           0x00000000        0x0 ../tools/GNU_Arm_Toolchain/arm-none-eabi/lib/thumb/v7/nofp/libc.a(lib_a-dtoa.o)
 .text          0x00000000        0x0 ../tools/GNU_Arm_Toolchain/arm-none-eabi/lib/thumb/v7/nofp/libc.a(lib_a-errno.o)
 .data          0x00000000        0x0 ../tools/GNU_Arm_Toolchain/arm-none-eabi/lib/thumb/v7/nofp/libc.a(lib_a-errno.o)
 .bss           0x00000000        0x0 ../tools/GNU_Arm_Toolchain/arm-none-eabi/lib/thumb/v7/nofp/libc.a(lib_a-errno.o)
 .text          0x00000000        0x0 ../tools/GNU_Arm_Toolchain/arm-none-eabi/lib/thumb/v7/nofp/libc.a(lib_a-fflush.o)
 .data          0x00000000        0x0 ../tools/GNU_Arm_Toolchain/arm-none-eabi/lib/thumb/v7/nofp/libc.a(lib_a-fflush.o)
 .bss           0x00000000        0x0 ../tools/GNU_Arm_Toolchain/arm-none-eabi/lib/thumb/v7/nofp/libc.a(lib_a-fflush.o)
 .text.fflush   0x00000000       0x78 ../tools/GNU_Arm_Toolchain/arm-none-eabi/lib/thumb/v7/nofp/libc.a(lib_a-fflush.o)
 .text          0x00000000        0x0 ../tools/GNU_Arm_Toolchain/arm-none-eabi/lib/thumb/v7/nofp/libc.a(lib_a-findfp.o)
 .data          0x00000000        0x0 ../tools/GNU_Arm_Toolchain/arm-none-eabi/lib/thumb/v7/nofp/libc.a(lib_a-findfp.o)
 .bss           0x00000000        0x0 ../tools/GNU_Arm_Toolchain/arm-none-eabi/lib/thumb/v7/nofp/libc.a(lib_a-findfp.o)
 .text.__fp_lock
                0x00000000       0x1c ../tools/GNU_Arm_Toolchain/arm-none-eabi/lib/thumb/v7/nofp/libc.a(lib_a-findfp.o)
 .text.__fp_unlock
                0x00000000       0x1c ../tools/GNU_Arm_Toolchain/arm-none-eabi/lib/thumb/v7/nofp/libc.a(lib_a-findfp.o)
 .text.__sfmoreglue
                0x00000000       0x30 ../tools/GNU_Arm_Toolchain/arm-none-eabi/lib/thumb/v7/nofp/libc.a(lib_a-findfp.o)
 .text._cleanup
                0x00000000       0x18 ../tools/GNU_Arm_Toolchain/arm-none-eabi/lib/thumb/v7/nofp/libc.a(lib_a-findfp.o)
 .text.__sfp    0x00000000       0xd4 ../tools/GNU_Arm_Toolchain/arm-none-eabi/lib/thumb/v7/nofp/libc.a(lib_a-findfp.o)
 .text.__sinit_lock_acquire
                0x00000000        0xc ../tools/GNU_Arm_Toolchain/arm-none-eabi/lib/thumb/v7/nofp/libc.a(lib_a-findfp.o)
 .text.__sinit_lock_release
                0x00000000        0xc ../tools/GNU_Arm_Toolchain/arm-none-eabi/lib/thumb/v7/nofp/libc.a(lib_a-findfp.o)
 .text.__fp_lock_all
                0x00000000       0x28 ../tools/GNU_Arm_Toolchain/arm-none-eabi/lib/thumb/v7/nofp/libc.a(lib_a-findfp.o)
 .text.__fp_unlock_all
                0x00000000       0x28 ../tools/GNU_Arm_Toolchain/arm-none-eabi/lib/thumb/v7/nofp/libc.a(lib_a-findfp.o)
 .text          0x00000000        0x0 ../tools/GNU_Arm_Toolchain/arm-none-eabi/lib/thumb/v7/nofp/libc.a(lib_a-freer.o)
 .data          0x00000000        0x0 ../tools/GNU_Arm_Toolchain/arm-none-eabi/lib/thumb/v7/nofp/libc.a(lib_a-freer.o)
 .bss           0x00000000        0x0 ../tools/GNU_Arm_Toolchain/arm-none-eabi/lib/thumb/v7/nofp/libc.a(lib_a-freer.o)
 .text          0x00000000        0x0 ../tools/GNU_Arm_Toolchain/arm-none-eabi/lib/thumb/v7/nofp/libc.a(lib_a-fwalk.o)
 .data          0x00000000        0x0 ../tools/GNU_Arm_Toolchain/arm-none-eabi/lib/thumb/v7/nofp/libc.a(lib_a-fwalk.o)
 .bss           0x00000000        0x0 ../tools/GNU_Arm_Toolchain/arm-none-eabi/lib/thumb/v7/nofp/libc.a(lib_a-fwalk.o)
 .text._fwalk   0x00000000       0x3c ../tools/GNU_Arm_Toolchain/arm-none-eabi/lib/thumb/v7/nofp/libc.a(lib_a-fwalk.o)
 .text          0x00000000        0x0 ../tools/GNU_Arm_Toolchain/arm-none-eabi/lib/thumb/v7/nofp/libc.a(lib_a-impure.o)
 .data          0x00000000        0x0 ../tools/GNU_Arm_Toolchain/arm-none-eabi/lib/thumb/v7/nofp/libc.a(lib_a-impure.o)
 .bss           0x00000000        0x0 ../tools/GNU_Arm_Toolchain/arm-none-eabi/lib/thumb/v7/nofp/libc.a(lib_a-impure.o)
 .rodata._global_impure_ptr
                0x00000000        0x4 ../tools/GNU_Arm_Toolchain/arm-none-eabi/lib/thumb/v7/nofp/libc.a(lib_a-impure.o)
 .text          0x00000000        0x0 ../tools/GNU_Arm_Toolchain/arm-none-eabi/lib/thumb/v7/nofp/libc.a(lib_a-iswspace.o)
 .data          0x00000000        0x0 ../tools/GNU_Arm_Toolchain/arm-none-eabi/lib/thumb/v7/nofp/libc.a(lib_a-iswspace.o)
 .bss           0x00000000        0x0 ../tools/GNU_Arm_Toolchain/arm-none-eabi/lib/thumb/v7/nofp/libc.a(lib_a-iswspace.o)
 .text          0x00000000        0x0 ../tools/GNU_Arm_Toolchain/arm-none-eabi/lib/thumb/v7/nofp/libc.a(lib_a-iswspace_l.o)
 .data          0x00000000        0x0 ../tools/GNU_Arm_Toolchain/arm-none-eabi/lib/thumb/v7/nofp/libc.a(lib_a-iswspace_l.o)
 .bss           0x00000000        0x0 ../tools/GNU_Arm_Toolchain/arm-none-eabi/lib/thumb/v7/nofp/libc.a(lib_a-iswspace_l.o)
 .text          0x00000000        0x0 ../tools/GNU_Arm_Toolchain/arm-none-eabi/lib/thumb/v7/nofp/libc.a(lib_a-locale.o)
 .data          0x00000000        0x0 ../tools/GNU_Arm_Toolchain/arm-none-eabi/lib/thumb/v7/nofp/libc.a(lib_a-locale.o)
 .bss           0x00000000        0x0 ../tools/GNU_Arm_Toolchain/arm-none-eabi/lib/thumb/v7/nofp/libc.a(lib_a-locale.o)
 .text._setlocale_r
                0x00000000       0x54 ../tools/GNU_Arm_Toolchain/arm-none-eabi/lib/thumb/v7/nofp/libc.a(lib_a-locale.o)
 .text.setlocale
                0x00000000       0x54 ../tools/GNU_Arm_Toolchain/arm-none-eabi/lib/thumb/v7/nofp/libc.a(lib_a-locale.o)
 .bss._PathLocale
                0x00000000        0x4 ../tools/GNU_Arm_Toolchain/arm-none-eabi/lib/thumb/v7/nofp/libc.a(lib_a-locale.o)
 .text          0x00000000        0x0 ../tools/GNU_Arm_Toolchain/arm-none-eabi/lib/thumb/v7/nofp/libc.a(lib_a-localeconv.o)
 .data          0x00000000        0x0 ../tools/GNU_Arm_Toolchain/arm-none-eabi/lib/thumb/v7/nofp/libc.a(lib_a-localeconv.o)
 .bss           0x00000000        0x0 ../tools/GNU_Arm_Toolchain/arm-none-eabi/lib/thumb/v7/nofp/libc.a(lib_a-localeconv.o)
 .text.__localeconv_l
                0x00000000        0x4 ../tools/GNU_Arm_Toolchain/arm-none-eabi/lib/thumb/v7/nofp/libc.a(lib_a-localeconv.o)
 .text.localeconv
                0x00000000        0x8 ../tools/GNU_Arm_Toolchain/arm-none-eabi/lib/thumb/v7/nofp/libc.a(lib_a-localeconv.o)
 .text          0x00000000        0x0 ../tools/GNU_Arm_Toolchain/arm-none-eabi/lib/thumb/v7/nofp/libc.a(lib_a-lock.o)
 .data          0x00000000        0x0 ../tools/GNU_Arm_Toolchain/arm-none-eabi/lib/thumb/v7/nofp/libc.a(lib_a-lock.o)
 .bss           0x00000000        0x0 ../tools/GNU_Arm_Toolchain/arm-none-eabi/lib/thumb/v7/nofp/libc.a(lib_a-lock.o)
 .text.__retarget_lock_init
                0x00000000        0x4 ../tools/GNU_Arm_Toolchain/arm-none-eabi/lib/thumb/v7/nofp/libc.a(lib_a-lock.o)
 .text.__retarget_lock_close
                0x00000000        0x4 ../tools/GNU_Arm_Toolchain/arm-none-eabi/lib/thumb/v7/nofp/libc.a(lib_a-lock.o)
 .text.__retarget_lock_acquire
                0x00000000        0x4 ../tools/GNU_Arm_Toolchain/arm-none-eabi/lib/thumb/v7/nofp/libc.a(lib_a-lock.o)
 .text.__retarget_lock_try_acquire
                0x00000000        0x4 ../tools/GNU_Arm_Toolchain/arm-none-eabi/lib/thumb/v7/nofp/libc.a(lib_a-lock.o)
 .text.__retarget_lock_try_acquire_recursive
                0x00000000        0x4 ../tools/GNU_Arm_Toolchain/arm-none-eabi/lib/thumb/v7/nofp/libc.a(lib_a-lock.o)
 .text.__retarget_lock_release
                0x00000000        0x4 ../tools/GNU_Arm_Toolchain/arm-none-eabi/lib/thumb/v7/nofp/libc.a(lib_a-lock.o)
 .bss.__lock___arc4random_mutex
                0x00000000        0x1 ../tools/GNU_Arm_Toolchain/arm-none-eabi/lib/thumb/v7/nofp/libc.a(lib_a-lock.o)
 .bss.__lock___at_quick_exit_mutex
                0x00000000        0x1 ../tools/GNU_Arm_Toolchain/arm-none-eabi/lib/thumb/v7/nofp/libc.a(lib_a-lock.o)
 .bss.__lock___atexit_recursive_mutex
                0x00000000        0x1 ../tools/GNU_Arm_Toolchain/arm-none-eabi/lib/thumb/v7/nofp/libc.a(lib_a-lock.o)
 .bss.__lock___dd_hash_mutex
                0x00000000        0x1 ../tools/GNU_Arm_Toolchain/arm-none-eabi/lib/thumb/v7/nofp/libc.a(lib_a-lock.o)
 .bss.__lock___env_recursive_mutex
                0x00000000        0x1 ../tools/GNU_Arm_Toolchain/arm-none-eabi/lib/thumb/v7/nofp/libc.a(lib_a-lock.o)
 .bss.__lock___tz_mutex
                0x00000000        0x1 ../tools/GNU_Arm_Toolchain/arm-none-eabi/lib/thumb/v7/nofp/libc.a(lib_a-lock.o)
 .text          0x00000000        0x0 ../tools/GNU_Arm_Toolchain/arm-none-eabi/lib/thumb/v7/nofp/libc.a(lib_a-lseekr.o)
 .data          0x00000000        0x0 ../tools/GNU_Arm_Toolchain/arm-none-eabi/lib/thumb/v7/nofp/libc.a(lib_a-lseekr.o)
 .bss           0x00000000        0x0 ../tools/GNU_Arm_Toolchain/arm-none-eabi/lib/thumb/v7/nofp/libc.a(lib_a-lseekr.o)
 .text          0x00000000        0x0 ../tools/GNU_Arm_Toolchain/arm-none-eabi/lib/thumb/v7/nofp/libc.a(lib_a-makebuf.o)
 .data          0x00000000        0x0 ../tools/GNU_Arm_Toolchain/arm-none-eabi/lib/thumb/v7/nofp/libc.a(lib_a-makebuf.o)
 .bss           0x00000000        0x0 ../tools/GNU_Arm_Toolchain/arm-none-eabi/lib/thumb/v7/nofp/libc.a(lib_a-makebuf.o)
 .text.__swhatbuf_r
                0x00000000       0x60 ../tools/GNU_Arm_Toolchain/arm-none-eabi/lib/thumb/v7/nofp/libc.a(lib_a-makebuf.o)
 .text          0x00000000        0x0 ../tools/GNU_Arm_Toolchain/arm-none-eabi/lib/thumb/v7/nofp/libc.a(lib_a-mallocr.o)
 .data          0x00000000        0x0 ../tools/GNU_Arm_Toolchain/arm-none-eabi/lib/thumb/v7/nofp/libc.a(lib_a-mallocr.o)
 .bss           0x00000000        0x0 ../tools/GNU_Arm_Toolchain/arm-none-eabi/lib/thumb/v7/nofp/libc.a(lib_a-mallocr.o)
 .text          0x00000000        0x0 ../tools/GNU_Arm_Toolchain/arm-none-eabi/lib/thumb/v7/nofp/libc.a(lib_a-mbrtowc.o)
 .data          0x00000000        0x0 ../tools/GNU_Arm_Toolchain/arm-none-eabi/lib/thumb/v7/nofp/libc.a(lib_a-mbrtowc.o)
 .bss           0x00000000        0x0 ../tools/GNU_Arm_Toolchain/arm-none-eabi/lib/thumb/v7/nofp/libc.a(lib_a-mbrtowc.o)
 .text.mbrtowc  0x00000000       0x5c ../tools/GNU_Arm_Toolchain/arm-none-eabi/lib/thumb/v7/nofp/libc.a(lib_a-mbrtowc.o)
 .text          0x00000000        0x0 ../tools/GNU_Arm_Toolchain/arm-none-eabi/lib/thumb/v7/nofp/libc.a(lib_a-mbtowc_r.o)
 .data          0x00000000        0x0 ../tools/GNU_Arm_Toolchain/arm-none-eabi/lib/thumb/v7/nofp/libc.a(lib_a-mbtowc_r.o)
 .bss           0x00000000        0x0 ../tools/GNU_Arm_Toolchain/arm-none-eabi/lib/thumb/v7/nofp/libc.a(lib_a-mbtowc_r.o)
 .text._mbtowc_r
                0x00000000       0x14 ../tools/GNU_Arm_Toolchain/arm-none-eabi/lib/thumb/v7/nofp/libc.a(lib_a-mbtowc_r.o)
 .text          0x00000000        0x0 ../tools/GNU_Arm_Toolchain/arm-none-eabi/lib/thumb/v7/nofp/libc.a(lib_a-memchr-stub.o)
 .data          0x00000000        0x0 ../tools/GNU_Arm_Toolchain/arm-none-eabi/lib/thumb/v7/nofp/libc.a(lib_a-memchr-stub.o)
 .bss           0x00000000        0x0 ../tools/GNU_Arm_Toolchain/arm-none-eabi/lib/thumb/v7/nofp/libc.a(lib_a-memchr-stub.o)
 .text          0x00000000        0x0 ../tools/GNU_Arm_Toolchain/arm-none-eabi/lib/thumb/v7/nofp/libc.a(lib_a-memcmp.o)
 .data          0x00000000        0x0 ../tools/GNU_Arm_Toolchain/arm-none-eabi/lib/thumb/v7/nofp/libc.a(lib_a-memcmp.o)
 .bss           0x00000000        0x0 ../tools/GNU_Arm_Toolchain/arm-none-eabi/lib/thumb/v7/nofp/libc.a(lib_a-memcmp.o)
 .text          0x00000000        0x0 ../tools/GNU_Arm_Toolchain/arm-none-eabi/lib/thumb/v7/nofp/libc.a(lib_a-mlock.o)
 .data          0x00000000        0x0 ../tools/GNU_Arm_Toolchain/arm-none-eabi/lib/thumb/v7/nofp/libc.a(lib_a-mlock.o)
 .bss           0x00000000        0x0 ../tools/GNU_Arm_Toolchain/arm-none-eabi/lib/thumb/v7/nofp/libc.a(lib_a-mlock.o)
 .text          0x00000000        0x0 ../tools/GNU_Arm_Toolchain/arm-none-eabi/lib/thumb/v7/nofp/libc.a(lib_a-mprec.o)
 .data          0x00000000        0x0 ../tools/GNU_Arm_Toolchain/arm-none-eabi/lib/thumb/v7/nofp/libc.a(lib_a-mprec.o)
 .bss           0x00000000        0x0 ../tools/GNU_Arm_Toolchain/arm-none-eabi/lib/thumb/v7/nofp/libc.a(lib_a-mprec.o)
 .text._mprec_log10
                0x00000000       0x38 ../tools/GNU_Arm_Toolchain/arm-none-eabi/lib/thumb/v7/nofp/libc.a(lib_a-mprec.o)
 .rodata.__mprec_tinytens
                0x00000000       0x28 ../tools/GNU_Arm_Toolchain/arm-none-eabi/lib/thumb/v7/nofp/libc.a(lib_a-mprec.o)
 .text          0x00000000        0x0 ../tools/GNU_Arm_Toolchain/arm-none-eabi/lib/thumb/v7/nofp/libc.a(lib_a-readr.o)
 .data          0x00000000        0x0 ../tools/GNU_Arm_Toolchain/arm-none-eabi/lib/thumb/v7/nofp/libc.a(lib_a-readr.o)
 .bss           0x00000000        0x0 ../tools/GNU_Arm_Toolchain/arm-none-eabi/lib/thumb/v7/nofp/libc.a(lib_a-readr.o)
 .text          0x00000000        0x0 ../tools/GNU_Arm_Toolchain/arm-none-eabi/lib/thumb/v7/nofp/libc.a(lib_a-reent.o)
 .data          0x00000000        0x0 ../tools/GNU_Arm_Toolchain/arm-none-eabi/lib/thumb/v7/nofp/libc.a(lib_a-reent.o)
 .bss           0x00000000        0x0 ../tools/GNU_Arm_Toolchain/arm-none-eabi/lib/thumb/v7/nofp/libc.a(lib_a-reent.o)
 .text.cleanup_glue
                0x00000000       0x48 ../tools/GNU_Arm_Toolchain/arm-none-eabi/lib/thumb/v7/nofp/libc.a(lib_a-reent.o)
 .text._reclaim_reent
                0x00000000       0x94 ../tools/GNU_Arm_Toolchain/arm-none-eabi/lib/thumb/v7/nofp/libc.a(lib_a-reent.o)
 .text          0x00000000        0x0 ../tools/GNU_Arm_Toolchain/arm-none-eabi/lib/thumb/v7/nofp/libc.a(lib_a-s_frexp.o)
 .data          0x00000000        0x0 ../tools/GNU_Arm_Toolchain/arm-none-eabi/lib/thumb/v7/nofp/libc.a(lib_a-s_frexp.o)
 .bss           0x00000000        0x0 ../tools/GNU_Arm_Toolchain/arm-none-eabi/lib/thumb/v7/nofp/libc.a(lib_a-s_frexp.o)
 .text          0x00000000        0x0 ../tools/GNU_Arm_Toolchain/arm-none-eabi/lib/thumb/v7/nofp/libc.a(lib_a-sbrkr.o)
 .data          0x00000000        0x0 ../tools/GNU_Arm_Toolchain/arm-none-eabi/lib/thumb/v7/nofp/libc.a(lib_a-sbrkr.o)
 .bss           0x00000000        0x0 ../tools/GNU_Arm_Toolchain/arm-none-eabi/lib/thumb/v7/nofp/libc.a(lib_a-sbrkr.o)
 .text          0x00000000        0x0 ../tools/GNU_Arm_Toolchain/arm-none-eabi/lib/thumb/v7/nofp/libc.a(lib_a-sccl.o)
 .data          0x00000000        0x0 ../tools/GNU_Arm_Toolchain/arm-none-eabi/lib/thumb/v7/nofp/libc.a(lib_a-sccl.o)
 .bss           0x00000000        0x0 ../tools/GNU_Arm_Toolchain/arm-none-eabi/lib/thumb/v7/nofp/libc.a(lib_a-sccl.o)
 .text          0x00000000        0x0 ../tools/GNU_Arm_Toolchain/arm-none-eabi/lib/thumb/v7/nofp/libc.a(lib_a-sf_nan.o)
 .data          0x00000000        0x0 ../tools/GNU_Arm_Toolchain/arm-none-eabi/lib/thumb/v7/nofp/libc.a(lib_a-sf_nan.o)
 .bss           0x00000000        0x0 ../tools/GNU_Arm_Toolchain/arm-none-eabi/lib/thumb/v7/nofp/libc.a(lib_a-sf_nan.o)
 .text          0x00000000        0x0 ../tools/GNU_Arm_Toolchain/arm-none-eabi/lib/thumb/v7/nofp/libc.a(lib_a-strnlen.o)
 .data          0x00000000        0x0 ../tools/GNU_Arm_Toolchain/arm-none-eabi/lib/thumb/v7/nofp/libc.a(lib_a-strnlen.o)
 .bss           0x00000000        0x0 ../tools/GNU_Arm_Toolchain/arm-none-eabi/lib/thumb/v7/nofp/libc.a(lib_a-strnlen.o)
 .text          0x00000000        0x0 ../tools/GNU_Arm_Toolchain/arm-none-eabi/lib/thumb/v7/nofp/libc.a(lib_a-strtod.o)
 .data          0x00000000        0x0 ../tools/GNU_Arm_Toolchain/arm-none-eabi/lib/thumb/v7/nofp/libc.a(lib_a-strtod.o)
 .bss           0x00000000        0x0 ../tools/GNU_Arm_Toolchain/arm-none-eabi/lib/thumb/v7/nofp/libc.a(lib_a-strtod.o)
 .text.strtod_l
                0x00000000       0x20 ../tools/GNU_Arm_Toolchain/arm-none-eabi/lib/thumb/v7/nofp/libc.a(lib_a-strtod.o)
 .text.strtod   0x00000000       0x24 ../tools/GNU_Arm_Toolchain/arm-none-eabi/lib/thumb/v7/nofp/libc.a(lib_a-strtod.o)
 .text.strtof_l
                0x00000000       0xb0 ../tools/GNU_Arm_Toolchain/arm-none-eabi/lib/thumb/v7/nofp/libc.a(lib_a-strtod.o)
 .text.strtof   0x00000000       0xb4 ../tools/GNU_Arm_Toolchain/arm-none-eabi/lib/thumb/v7/nofp/libc.a(lib_a-strtod.o)
 .text          0x00000000        0x0 ../tools/GNU_Arm_Toolchain/arm-none-eabi/lib/thumb/v7/nofp/libc.a(lib_a-strtoll.o)
 .data          0x00000000        0x0 ../tools/GNU_Arm_Toolchain/arm-none-eabi/lib/thumb/v7/nofp/libc.a(lib_a-strtoll.o)
 .bss           0x00000000        0x0 ../tools/GNU_Arm_Toolchain/arm-none-eabi/lib/thumb/v7/nofp/libc.a(lib_a-strtoll.o)
 .text.strtoll_l
                0x00000000       0x20 ../tools/GNU_Arm_Toolchain/arm-none-eabi/lib/thumb/v7/nofp/libc.a(lib_a-strtoll.o)
 .text.strtoll  0x00000000       0x20 ../tools/GNU_Arm_Toolchain/arm-none-eabi/lib/thumb/v7/nofp/libc.a(lib_a-strtoll.o)
 .text          0x00000000        0x0 ../tools/GNU_Arm_Toolchain/arm-none-eabi/lib/thumb/v7/nofp/libc.a(lib_a-strtoul.o)
 .data          0x00000000        0x0 ../tools/GNU_Arm_Toolchain/arm-none-eabi/lib/thumb/v7/nofp/libc.a(lib_a-strtoul.o)
 .bss           0x00000000        0x0 ../tools/GNU_Arm_Toolchain/arm-none-eabi/lib/thumb/v7/nofp/libc.a(lib_a-strtoul.o)
 .text.strtoul_l
                0x00000000       0x20 ../tools/GNU_Arm_Toolchain/arm-none-eabi/lib/thumb/v7/nofp/libc.a(lib_a-strtoul.o)
 .text.strtoul  0x00000000       0x20 ../tools/GNU_Arm_Toolchain/arm-none-eabi/lib/thumb/v7/nofp/libc.a(lib_a-strtoul.o)
 .text          0x00000000        0x0 ../tools/GNU_Arm_Toolchain/arm-none-eabi/lib/thumb/v7/nofp/libc.a(lib_a-strtoull.o)
 .data          0x00000000        0x0 ../tools/GNU_Arm_Toolchain/arm-none-eabi/lib/thumb/v7/nofp/libc.a(lib_a-strtoull.o)
 .bss           0x00000000        0x0 ../tools/GNU_Arm_Toolchain/arm-none-eabi/lib/thumb/v7/nofp/libc.a(lib_a-strtoull.o)
 .text.strtoull_l
                0x00000000       0x20 ../tools/GNU_Arm_Toolchain/arm-none-eabi/lib/thumb/v7/nofp/libc.a(lib_a-strtoull.o)
 .text.strtoull
                0x00000000       0x20 ../tools/GNU_Arm_Toolchain/arm-none-eabi/lib/thumb/v7/nofp/libc.a(lib_a-strtoull.o)
 .text          0x00000000        0x0 ../tools/GNU_Arm_Toolchain/arm-none-eabi/lib/thumb/v7/nofp/libc.a(lib_a-svfiprintf.o)
 .data          0x00000000        0x0 ../tools/GNU_Arm_Toolchain/arm-none-eabi/lib/thumb/v7/nofp/libc.a(lib_a-svfiprintf.o)
 .bss           0x00000000        0x0 ../tools/GNU_Arm_Toolchain/arm-none-eabi/lib/thumb/v7/nofp/libc.a(lib_a-svfiprintf.o)
 .rodata._svfiprintf_r.str1.4
                0x00000000       0x2f ../tools/GNU_Arm_Toolchain/arm-none-eabi/lib/thumb/v7/nofp/libc.a(lib_a-svfiprintf.o)
 .text._svfiprintf_r
                0x00000000      0xb68 ../tools/GNU_Arm_Toolchain/arm-none-eabi/lib/thumb/v7/nofp/libc.a(lib_a-svfiprintf.o)
 .rodata.blanks.1
                0x00000000       0x10 ../tools/GNU_Arm_Toolchain/arm-none-eabi/lib/thumb/v7/nofp/libc.a(lib_a-svfiprintf.o)
 .rodata.zeroes.0
                0x00000000       0x10 ../tools/GNU_Arm_Toolchain/arm-none-eabi/lib/thumb/v7/nofp/libc.a(lib_a-svfiprintf.o)
 .text          0x00000000        0x0 ../tools/GNU_Arm_Toolchain/arm-none-eabi/lib/thumb/v7/nofp/libc.a(lib_a-svfiscanf.o)
 .data          0x00000000        0x0 ../tools/GNU_Arm_Toolchain/arm-none-eabi/lib/thumb/v7/nofp/libc.a(lib_a-svfiscanf.o)
 .bss           0x00000000        0x0 ../tools/GNU_Arm_Toolchain/arm-none-eabi/lib/thumb/v7/nofp/libc.a(lib_a-svfiscanf.o)
 .text.__ssvfiscanf_r
                0x00000000     0x1640 ../tools/GNU_Arm_Toolchain/arm-none-eabi/lib/thumb/v7/nofp/libc.a(lib_a-svfiscanf.o)
 .rodata.basefix.0
                0x00000000       0x22 ../tools/GNU_Arm_Toolchain/arm-none-eabi/lib/thumb/v7/nofp/libc.a(lib_a-svfiscanf.o)
 .text          0x00000000        0x0 ../tools/GNU_Arm_Toolchain/arm-none-eabi/lib/thumb/v7/nofp/libc.a(lib_a-ungetc.o)
 .data          0x00000000        0x0 ../tools/GNU_Arm_Toolchain/arm-none-eabi/lib/thumb/v7/nofp/libc.a(lib_a-ungetc.o)
 .bss           0x00000000        0x0 ../tools/GNU_Arm_Toolchain/arm-none-eabi/lib/thumb/v7/nofp/libc.a(lib_a-ungetc.o)
 .text._ungetc_r
                0x00000000      0x140 ../tools/GNU_Arm_Toolchain/arm-none-eabi/lib/thumb/v7/nofp/libc.a(lib_a-ungetc.o)
 .text.ungetc   0x00000000       0x14 ../tools/GNU_Arm_Toolchain/arm-none-eabi/lib/thumb/v7/nofp/libc.a(lib_a-ungetc.o)
 .text          0x00000000        0x0 ../tools/GNU_Arm_Toolchain/arm-none-eabi/lib/thumb/v7/nofp/libc.a(lib_a-vfiprintf.o)
 .data          0x00000000        0x0 ../tools/GNU_Arm_Toolchain/arm-none-eabi/lib/thumb/v7/nofp/libc.a(lib_a-vfiprintf.o)
 .bss           0x00000000        0x0 ../tools/GNU_Arm_Toolchain/arm-none-eabi/lib/thumb/v7/nofp/libc.a(lib_a-vfiprintf.o)
 .text.__sprint_r
                0x00000000       0x14 ../tools/GNU_Arm_Toolchain/arm-none-eabi/lib/thumb/v7/nofp/libc.a(lib_a-vfiprintf.o)
 .text.vfiprintf
                0x00000000       0x20 ../tools/GNU_Arm_Toolchain/arm-none-eabi/lib/thumb/v7/nofp/libc.a(lib_a-vfiprintf.o)
 .text          0x00000000        0x0 ../tools/GNU_Arm_Toolchain/arm-none-eabi/lib/thumb/v7/nofp/libc.a(lib_a-wctomb_r.o)
 .data          0x00000000        0x0 ../tools/GNU_Arm_Toolchain/arm-none-eabi/lib/thumb/v7/nofp/libc.a(lib_a-wctomb_r.o)
 .bss           0x00000000        0x0 ../tools/GNU_Arm_Toolchain/arm-none-eabi/lib/thumb/v7/nofp/libc.a(lib_a-wctomb_r.o)
 .text._wctomb_r
                0x00000000       0x14 ../tools/GNU_Arm_Toolchain/arm-none-eabi/lib/thumb/v7/nofp/libc.a(lib_a-wctomb_r.o)
 .text          0x00000000        0x0 ../tools/GNU_Arm_Toolchain/arm-none-eabi/lib/thumb/v7/nofp/libc.a(lib_a-assert.o)
 .data          0x00000000        0x0 ../tools/GNU_Arm_Toolchain/arm-none-eabi/lib/thumb/v7/nofp/libc.a(lib_a-assert.o)
 .bss           0x00000000        0x0 ../tools/GNU_Arm_Toolchain/arm-none-eabi/lib/thumb/v7/nofp/libc.a(lib_a-assert.o)
 .text.__assert
                0x00000000        0xc ../tools/GNU_Arm_Toolchain/arm-none-eabi/lib/thumb/v7/nofp/libc.a(lib_a-assert.o)
 .text          0x00000000        0x0 ../tools/GNU_Arm_Toolchain/arm-none-eabi/lib/thumb/v7/nofp/libc.a(lib_a-callocr.o)
 .data          0x00000000        0x0 ../tools/GNU_Arm_Toolchain/arm-none-eabi/lib/thumb/v7/nofp/libc.a(lib_a-callocr.o)
 .bss           0x00000000        0x0 ../tools/GNU_Arm_Toolchain/arm-none-eabi/lib/thumb/v7/nofp/libc.a(lib_a-callocr.o)
 .text          0x00000000        0x0 ../tools/GNU_Arm_Toolchain/arm-none-eabi/lib/thumb/v7/nofp/libc.a(lib_a-fclose.o)
 .data          0x00000000        0x0 ../tools/GNU_Arm_Toolchain/arm-none-eabi/lib/thumb/v7/nofp/libc.a(lib_a-fclose.o)
 .bss           0x00000000        0x0 ../tools/GNU_Arm_Toolchain/arm-none-eabi/lib/thumb/v7/nofp/libc.a(lib_a-fclose.o)
 .text.fclose   0x00000000       0x10 ../tools/GNU_Arm_Toolchain/arm-none-eabi/lib/thumb/v7/nofp/libc.a(lib_a-fclose.o)
 .text          0x00000000        0x0 ../tools/GNU_Arm_Toolchain/arm-none-eabi/lib/thumb/v7/nofp/libc.a(lib_a-fiprintf.o)
 .data          0x00000000        0x0 ../tools/GNU_Arm_Toolchain/arm-none-eabi/lib/thumb/v7/nofp/libc.a(lib_a-fiprintf.o)
 .bss           0x00000000        0x0 ../tools/GNU_Arm_Toolchain/arm-none-eabi/lib/thumb/v7/nofp/libc.a(lib_a-fiprintf.o)
 .text._fiprintf_r
                0x00000000       0x1c ../tools/GNU_Arm_Toolchain/arm-none-eabi/lib/thumb/v7/nofp/libc.a(lib_a-fiprintf.o)
 .text          0x00000000        0x0 ../tools/GNU_Arm_Toolchain/arm-none-eabi/lib/thumb/v7/nofp/libc.a(lib_a-fputwc.o)
 .data          0x00000000        0x0 ../tools/GNU_Arm_Toolchain/arm-none-eabi/lib/thumb/v7/nofp/libc.a(lib_a-fputwc.o)
 .bss           0x00000000        0x0 ../tools/GNU_Arm_Toolchain/arm-none-eabi/lib/thumb/v7/nofp/libc.a(lib_a-fputwc.o)
 .text.fputwc   0x00000000       0x74 ../tools/GNU_Arm_Toolchain/arm-none-eabi/lib/thumb/v7/nofp/libc.a(lib_a-fputwc.o)
 .text          0x00000000        0x0 ../tools/GNU_Arm_Toolchain/arm-none-eabi/lib/thumb/v7/nofp/libc.a(lib_a-fstatr.o)
 .data          0x00000000        0x0 ../tools/GNU_Arm_Toolchain/arm-none-eabi/lib/thumb/v7/nofp/libc.a(lib_a-fstatr.o)
 .bss           0x00000000        0x0 ../tools/GNU_Arm_Toolchain/arm-none-eabi/lib/thumb/v7/nofp/libc.a(lib_a-fstatr.o)
 .text          0x00000000        0x0 ../tools/GNU_Arm_Toolchain/arm-none-eabi/lib/thumb/v7/nofp/libc.a(lib_a-fvwrite.o)
 .data          0x00000000        0x0 ../tools/GNU_Arm_Toolchain/arm-none-eabi/lib/thumb/v7/nofp/libc.a(lib_a-fvwrite.o)
 .bss           0x00000000        0x0 ../tools/GNU_Arm_Toolchain/arm-none-eabi/lib/thumb/v7/nofp/libc.a(lib_a-fvwrite.o)
 .text          0x00000000        0x0 ../tools/GNU_Arm_Toolchain/arm-none-eabi/lib/thumb/v7/nofp/libc.a(lib_a-gdtoa-gethex.o)
 .data          0x00000000        0x0 ../tools/GNU_Arm_Toolchain/arm-none-eabi/lib/thumb/v7/nofp/libc.a(lib_a-gdtoa-gethex.o)
 .bss           0x00000000        0x0 ../tools/GNU_Arm_Toolchain/arm-none-eabi/lib/thumb/v7/nofp/libc.a(lib_a-gdtoa-gethex.o)
 .text          0x00000000        0x0 ../tools/GNU_Arm_Toolchain/arm-none-eabi/lib/thumb/v7/nofp/libc.a(lib_a-gdtoa-hexnan.o)
 .data          0x00000000        0x0 ../tools/GNU_Arm_Toolchain/arm-none-eabi/lib/thumb/v7/nofp/libc.a(lib_a-gdtoa-hexnan.o)
 .bss           0x00000000        0x0 ../tools/GNU_Arm_Toolchain/arm-none-eabi/lib/thumb/v7/nofp/libc.a(lib_a-gdtoa-hexnan.o)
 .text          0x00000000        0x0 ../tools/GNU_Arm_Toolchain/arm-none-eabi/lib/thumb/v7/nofp/libc.a(lib_a-isattyr.o)
 .data          0x00000000        0x0 ../tools/GNU_Arm_Toolchain/arm-none-eabi/lib/thumb/v7/nofp/libc.a(lib_a-isattyr.o)
 .bss           0x00000000        0x0 ../tools/GNU_Arm_Toolchain/arm-none-eabi/lib/thumb/v7/nofp/libc.a(lib_a-isattyr.o)
 .text          0x00000000        0x0 ../tools/GNU_Arm_Toolchain/arm-none-eabi/lib/thumb/v7/nofp/libc.a(lib_a-lnumeric.o)
 .data          0x00000000        0x0 ../tools/GNU_Arm_Toolchain/arm-none-eabi/lib/thumb/v7/nofp/libc.a(lib_a-lnumeric.o)
 .bss           0x00000000        0x0 ../tools/GNU_Arm_Toolchain/arm-none-eabi/lib/thumb/v7/nofp/libc.a(lib_a-lnumeric.o)
 .text.__numeric_load_locale
                0x00000000        0x4 ../tools/GNU_Arm_Toolchain/arm-none-eabi/lib/thumb/v7/nofp/libc.a(lib_a-lnumeric.o)
 .text          0x00000000        0x0 ../tools/GNU_Arm_Toolchain/arm-none-eabi/lib/thumb/v7/nofp/libc.a(lib_a-memmove.o)
 .data          0x00000000        0x0 ../tools/GNU_Arm_Toolchain/arm-none-eabi/lib/thumb/v7/nofp/libc.a(lib_a-memmove.o)
 .bss           0x00000000        0x0 ../tools/GNU_Arm_Toolchain/arm-none-eabi/lib/thumb/v7/nofp/libc.a(lib_a-memmove.o)
 .text          0x00000000        0x0 ../tools/GNU_Arm_Toolchain/arm-none-eabi/lib/thumb/v7/nofp/libc.a(lib_a-reallocr.o)
 .data          0x00000000        0x0 ../tools/GNU_Arm_Toolchain/arm-none-eabi/lib/thumb/v7/nofp/libc.a(lib_a-reallocr.o)
 .bss           0x00000000        0x0 ../tools/GNU_Arm_Toolchain/arm-none-eabi/lib/thumb/v7/nofp/libc.a(lib_a-reallocr.o)
 .text          0x00000000        0x0 ../tools/GNU_Arm_Toolchain/arm-none-eabi/lib/thumb/v7/nofp/libc.a(lib_a-s_nan.o)
 .data          0x00000000        0x0 ../tools/GNU_Arm_Toolchain/arm-none-eabi/lib/thumb/v7/nofp/libc.a(lib_a-s_nan.o)
 .bss           0x00000000        0x0 ../tools/GNU_Arm_Toolchain/arm-none-eabi/lib/thumb/v7/nofp/libc.a(lib_a-s_nan.o)
 .text          0x00000000        0x0 ../tools/GNU_Arm_Toolchain/arm-none-eabi/lib/thumb/v7/nofp/libc.a(lib_a-wbuf.o)
 .data          0x00000000        0x0 ../tools/GNU_Arm_Toolchain/arm-none-eabi/lib/thumb/v7/nofp/libc.a(lib_a-wbuf.o)
 .bss           0x00000000        0x0 ../tools/GNU_Arm_Toolchain/arm-none-eabi/lib/thumb/v7/nofp/libc.a(lib_a-wbuf.o)
 .text.__swbuf  0x00000000       0x14 ../tools/GNU_Arm_Toolchain/arm-none-eabi/lib/thumb/v7/nofp/libc.a(lib_a-wbuf.o)
 .text          0x00000000        0x0 ../tools/GNU_Arm_Toolchain/arm-none-eabi/lib/thumb/v7/nofp/libc.a(lib_a-wcrtomb.o)
 .data          0x00000000        0x0 ../tools/GNU_Arm_Toolchain/arm-none-eabi/lib/thumb/v7/nofp/libc.a(lib_a-wcrtomb.o)
 .bss           0x00000000        0x0 ../tools/GNU_Arm_Toolchain/arm-none-eabi/lib/thumb/v7/nofp/libc.a(lib_a-wcrtomb.o)
 .text.wcrtomb  0x00000000       0x54 ../tools/GNU_Arm_Toolchain/arm-none-eabi/lib/thumb/v7/nofp/libc.a(lib_a-wcrtomb.o)
 .text          0x00000000        0x0 ../tools/GNU_Arm_Toolchain/arm-none-eabi/lib/thumb/v7/nofp/libc.a(lib_a-abort.o)
 .data          0x00000000        0x0 ../tools/GNU_Arm_Toolchain/arm-none-eabi/lib/thumb/v7/nofp/libc.a(lib_a-abort.o)
 .bss           0x00000000        0x0 ../tools/GNU_Arm_Toolchain/arm-none-eabi/lib/thumb/v7/nofp/libc.a(lib_a-abort.o)
 .text          0x00000000        0x0 ../tools/GNU_Arm_Toolchain/arm-none-eabi/lib/thumb/v7/nofp/libc.a(lib_a-signal.o)
 .data          0x00000000        0x0 ../tools/GNU_Arm_Toolchain/arm-none-eabi/lib/thumb/v7/nofp/libc.a(lib_a-signal.o)
 .bss           0x00000000        0x0 ../tools/GNU_Arm_Toolchain/arm-none-eabi/lib/thumb/v7/nofp/libc.a(lib_a-signal.o)
 .text._init_signal_r
                0x00000000       0x30 ../tools/GNU_Arm_Toolchain/arm-none-eabi/lib/thumb/v7/nofp/libc.a(lib_a-signal.o)
 .text._signal_r
                0x00000000       0x4c ../tools/GNU_Arm_Toolchain/arm-none-eabi/lib/thumb/v7/nofp/libc.a(lib_a-signal.o)
 .text._raise_r
                0x00000000       0x58 ../tools/GNU_Arm_Toolchain/arm-none-eabi/lib/thumb/v7/nofp/libc.a(lib_a-signal.o)
 .text.__sigtramp_r
                0x00000000       0x64 ../tools/GNU_Arm_Toolchain/arm-none-eabi/lib/thumb/v7/nofp/libc.a(lib_a-signal.o)
 .text.signal   0x00000000       0x58 ../tools/GNU_Arm_Toolchain/arm-none-eabi/lib/thumb/v7/nofp/libc.a(lib_a-signal.o)
 .text._init_signal
                0x00000000       0x3c ../tools/GNU_Arm_Toolchain/arm-none-eabi/lib/thumb/v7/nofp/libc.a(lib_a-signal.o)
 .text.__sigtramp
                0x00000000       0x68 ../tools/GNU_Arm_Toolchain/arm-none-eabi/lib/thumb/v7/nofp/libc.a(lib_a-signal.o)
 .text          0x00000000        0x0 ../tools/GNU_Arm_Toolchain/arm-none-eabi/lib/thumb/v7/nofp/libc.a(lib_a-signalr.o)
 .data          0x00000000        0x0 ../tools/GNU_Arm_Toolchain/arm-none-eabi/lib/thumb/v7/nofp/libc.a(lib_a-signalr.o)
 .bss           0x00000000        0x0 ../tools/GNU_Arm_Toolchain/arm-none-eabi/lib/thumb/v7/nofp/libc.a(lib_a-signalr.o)
 .text          0x00000000        0x0 ../tools/GNU_Arm_Toolchain/arm-none-eabi/lib/thumb/v7/nofp/libnosys.a(close.o)
 .data          0x00000000        0x0 ../tools/GNU_Arm_Toolchain/arm-none-eabi/lib/thumb/v7/nofp/libnosys.a(close.o)
 .bss           0x00000000        0x0 ../tools/GNU_Arm_Toolchain/arm-none-eabi/lib/thumb/v7/nofp/libnosys.a(close.o)
 .text          0x00000000        0x0 ../tools/GNU_Arm_Toolchain/arm-none-eabi/lib/thumb/v7/nofp/libnosys.a(fstat.o)
 .data          0x00000000        0x0 ../tools/GNU_Arm_Toolchain/arm-none-eabi/lib/thumb/v7/nofp/libnosys.a(fstat.o)
 .bss           0x00000000        0x0 ../tools/GNU_Arm_Toolchain/arm-none-eabi/lib/thumb/v7/nofp/libnosys.a(fstat.o)
 .text          0x00000000        0x0 ../tools/GNU_Arm_Toolchain/arm-none-eabi/lib/thumb/v7/nofp/libnosys.a(getpid.o)
 .data          0x00000000        0x0 ../tools/GNU_Arm_Toolchain/arm-none-eabi/lib/thumb/v7/nofp/libnosys.a(getpid.o)
 .bss           0x00000000        0x0 ../tools/GNU_Arm_Toolchain/arm-none-eabi/lib/thumb/v7/nofp/libnosys.a(getpid.o)
 .text          0x00000000        0x0 ../tools/GNU_Arm_Toolchain/arm-none-eabi/lib/thumb/v7/nofp/libnosys.a(isatty.o)
 .data          0x00000000        0x0 ../tools/GNU_Arm_Toolchain/arm-none-eabi/lib/thumb/v7/nofp/libnosys.a(isatty.o)
 .bss           0x00000000        0x0 ../tools/GNU_Arm_Toolchain/arm-none-eabi/lib/thumb/v7/nofp/libnosys.a(isatty.o)
 .text          0x00000000        0x0 ../tools/GNU_Arm_Toolchain/arm-none-eabi/lib/thumb/v7/nofp/libnosys.a(kill.o)
 .data          0x00000000        0x0 ../tools/GNU_Arm_Toolchain/arm-none-eabi/lib/thumb/v7/nofp/libnosys.a(kill.o)
 .bss           0x00000000        0x0 ../tools/GNU_Arm_Toolchain/arm-none-eabi/lib/thumb/v7/nofp/libnosys.a(kill.o)
 .text          0x00000000        0x0 ../tools/GNU_Arm_Toolchain/arm-none-eabi/lib/thumb/v7/nofp/libnosys.a(lseek.o)
 .data          0x00000000        0x0 ../tools/GNU_Arm_Toolchain/arm-none-eabi/lib/thumb/v7/nofp/libnosys.a(lseek.o)
 .bss           0x00000000        0x0 ../tools/GNU_Arm_Toolchain/arm-none-eabi/lib/thumb/v7/nofp/libnosys.a(lseek.o)
 .text          0x00000000        0x0 ../tools/GNU_Arm_Toolchain/arm-none-eabi/lib/thumb/v7/nofp/libnosys.a(read.o)
 .data          0x00000000        0x0 ../tools/GNU_Arm_Toolchain/arm-none-eabi/lib/thumb/v7/nofp/libnosys.a(read.o)
 .bss           0x00000000        0x0 ../tools/GNU_Arm_Toolchain/arm-none-eabi/lib/thumb/v7/nofp/libnosys.a(read.o)
 .text          0x00000000        0x0 ../tools/GNU_Arm_Toolchain/arm-none-eabi/lib/thumb/v7/nofp/libnosys.a(sbrk.o)
 .data          0x00000000        0x0 ../tools/GNU_Arm_Toolchain/arm-none-eabi/lib/thumb/v7/nofp/libnosys.a(sbrk.o)
 .bss           0x00000000        0x0 ../tools/GNU_Arm_Toolchain/arm-none-eabi/lib/thumb/v7/nofp/libnosys.a(sbrk.o)
 .text          0x00000000        0x0 ../tools/GNU_Arm_Toolchain/arm-none-eabi/lib/thumb/v7/nofp/libnosys.a(write.o)
 .data          0x00000000        0x0 ../tools/GNU_Arm_Toolchain/arm-none-eabi/lib/thumb/v7/nofp/libnosys.a(write.o)
 .bss           0x00000000        0x0 ../tools/GNU_Arm_Toolchain/arm-none-eabi/lib/thumb/v7/nofp/libnosys.a(write.o)
 .text          0x00000000        0x0 ../tools/GNU_Arm_Toolchain/arm-none-eabi/lib/thumb/v7/nofp/libnosys.a(_exit.o)
 .data          0x00000000        0x0 ../tools/GNU_Arm_Toolchain/arm-none-eabi/lib/thumb/v7/nofp/libnosys.a(_exit.o)
 .bss           0x00000000        0x0 ../tools/GNU_Arm_Toolchain/arm-none-eabi/lib/thumb/v7/nofp/libnosys.a(_exit.o)
 .text          0x00000000      0x254 ../tools/GNU_Arm_Toolchain/lib/gcc/arm-none-eabi/10.3.1/thumb/v7/nofp/libgcc.a(_arm_muldf3.o)
 .data          0x00000000        0x0 ../tools/GNU_Arm_Toolchain/lib/gcc/arm-none-eabi/10.3.1/thumb/v7/nofp/libgcc.a(_arm_muldf3.o)
 .bss           0x00000000        0x0 ../tools/GNU_Arm_Toolchain/lib/gcc/arm-none-eabi/10.3.1/thumb/v7/nofp/libgcc.a(_arm_muldf3.o)
 .debug_frame   0x00000000       0x30 ../tools/GNU_Arm_Toolchain/lib/gcc/arm-none-eabi/10.3.1/thumb/v7/nofp/libgcc.a(_arm_muldf3.o)
 .ARM.attributes
                0x00000000       0x19 ../tools/GNU_Arm_Toolchain/lib/gcc/arm-none-eabi/10.3.1/thumb/v7/nofp/libgcc.a(_arm_muldf3.o)
 .data          0x00000000        0x0 ../tools/GNU_Arm_Toolchain/lib/gcc/arm-none-eabi/10.3.1/thumb/v7/nofp/libgcc.a(_udivsi3.o)
 .bss           0x00000000        0x0 ../tools/GNU_Arm_Toolchain/lib/gcc/arm-none-eabi/10.3.1/thumb/v7/nofp/libgcc.a(_udivsi3.o)
 .data          0x00000000        0x0 ../tools/GNU_Arm_Toolchain/lib/gcc/arm-none-eabi/10.3.1/thumb/v7/nofp/libgcc.a(_divsi3.o)
 .bss           0x00000000        0x0 ../tools/GNU_Arm_Toolchain/lib/gcc/arm-none-eabi/10.3.1/thumb/v7/nofp/libgcc.a(_divsi3.o)
 .data          0x00000000        0x0 ../tools/GNU_Arm_Toolchain/lib/gcc/arm-none-eabi/10.3.1/thumb/v7/nofp/libgcc.a(_dvmd_tls.o)
 .bss           0x00000000        0x0 ../tools/GNU_Arm_Toolchain/lib/gcc/arm-none-eabi/10.3.1/thumb/v7/nofp/libgcc.a(_dvmd_tls.o)
 .data          0x00000000        0x0 ../tools/GNU_Arm_Toolchain/lib/gcc/arm-none-eabi/10.3.1/thumb/v7/nofp/libgcc.a(_arm_addsubdf3.o)
 .bss           0x00000000        0x0 ../tools/GNU_Arm_Toolchain/lib/gcc/arm-none-eabi/10.3.1/thumb/v7/nofp/libgcc.a(_arm_addsubdf3.o)
 .data          0x00000000        0x0 ../tools/GNU_Arm_Toolchain/lib/gcc/arm-none-eabi/10.3.1/thumb/v7/nofp/libgcc.a(_arm_muldivdf3.o)
 .bss           0x00000000        0x0 ../tools/GNU_Arm_Toolchain/lib/gcc/arm-none-eabi/10.3.1/thumb/v7/nofp/libgcc.a(_arm_muldivdf3.o)
 .data          0x00000000        0x0 ../tools/GNU_Arm_Toolchain/lib/gcc/arm-none-eabi/10.3.1/thumb/v7/nofp/libgcc.a(_arm_cmpdf2.o)
 .bss           0x00000000        0x0 ../tools/GNU_Arm_Toolchain/lib/gcc/arm-none-eabi/10.3.1/thumb/v7/nofp/libgcc.a(_arm_cmpdf2.o)
 .data          0x00000000        0x0 ../tools/GNU_Arm_Toolchain/lib/gcc/arm-none-eabi/10.3.1/thumb/v7/nofp/libgcc.a(_arm_unorddf2.o)
 .bss           0x00000000        0x0 ../tools/GNU_Arm_Toolchain/lib/gcc/arm-none-eabi/10.3.1/thumb/v7/nofp/libgcc.a(_arm_unorddf2.o)
 .data          0x00000000        0x0 ../tools/GNU_Arm_Toolchain/lib/gcc/arm-none-eabi/10.3.1/thumb/v7/nofp/libgcc.a(_arm_fixdfsi.o)
 .bss           0x00000000        0x0 ../tools/GNU_Arm_Toolchain/lib/gcc/arm-none-eabi/10.3.1/thumb/v7/nofp/libgcc.a(_arm_fixdfsi.o)
 .data          0x00000000        0x0 ../tools/GNU_Arm_Toolchain/lib/gcc/arm-none-eabi/10.3.1/thumb/v7/nofp/libgcc.a(_arm_fixunsdfsi.o)
 .bss           0x00000000        0x0 ../tools/GNU_Arm_Toolchain/lib/gcc/arm-none-eabi/10.3.1/thumb/v7/nofp/libgcc.a(_arm_fixunsdfsi.o)
 .data          0x00000000        0x0 ../tools/GNU_Arm_Toolchain/lib/gcc/arm-none-eabi/10.3.1/thumb/v7/nofp/libgcc.a(_arm_truncdfsf2.o)
 .bss           0x00000000        0x0 ../tools/GNU_Arm_Toolchain/lib/gcc/arm-none-eabi/10.3.1/thumb/v7/nofp/libgcc.a(_arm_truncdfsf2.o)
 .data          0x00000000        0x0 ../tools/GNU_Arm_Toolchain/lib/gcc/arm-none-eabi/10.3.1/thumb/v7/nofp/libgcc.a(_arm_addsubsf3.o)
 .bss           0x00000000        0x0 ../tools/GNU_Arm_Toolchain/lib/gcc/arm-none-eabi/10.3.1/thumb/v7/nofp/libgcc.a(_arm_addsubsf3.o)
 .text          0x00000000      0x2a0 ../tools/GNU_Arm_Toolchain/lib/gcc/arm-none-eabi/10.3.1/thumb/v7/nofp/libgcc.a(_arm_muldivsf3.o)
 .data          0x00000000        0x0 ../tools/GNU_Arm_Toolchain/lib/gcc/arm-none-eabi/10.3.1/thumb/v7/nofp/libgcc.a(_arm_muldivsf3.o)
 .bss           0x00000000        0x0 ../tools/GNU_Arm_Toolchain/lib/gcc/arm-none-eabi/10.3.1/thumb/v7/nofp/libgcc.a(_arm_muldivsf3.o)
 .debug_frame   0x00000000       0x38 ../tools/GNU_Arm_Toolchain/lib/gcc/arm-none-eabi/10.3.1/thumb/v7/nofp/libgcc.a(_arm_muldivsf3.o)
 .ARM.attributes
                0x00000000       0x19 ../tools/GNU_Arm_Toolchain/lib/gcc/arm-none-eabi/10.3.1/thumb/v7/nofp/libgcc.a(_arm_muldivsf3.o)
 .data          0x00000000        0x0 ../tools/GNU_Arm_Toolchain/lib/gcc/arm-none-eabi/10.3.1/thumb/v7/nofp/libgcc.a(_arm_cmpsf2.o)
 .bss           0x00000000        0x0 ../tools/GNU_Arm_Toolchain/lib/gcc/arm-none-eabi/10.3.1/thumb/v7/nofp/libgcc.a(_arm_cmpsf2.o)
 .text          0x00000000       0x2c ../tools/GNU_Arm_Toolchain/lib/gcc/arm-none-eabi/10.3.1/thumb/v7/nofp/libgcc.a(_arm_unordsf2.o)
 .data          0x00000000        0x0 ../tools/GNU_Arm_Toolchain/lib/gcc/arm-none-eabi/10.3.1/thumb/v7/nofp/libgcc.a(_arm_unordsf2.o)
 .bss           0x00000000        0x0 ../tools/GNU_Arm_Toolchain/lib/gcc/arm-none-eabi/10.3.1/thumb/v7/nofp/libgcc.a(_arm_unordsf2.o)
 .debug_frame   0x00000000       0x24 ../tools/GNU_Arm_Toolchain/lib/gcc/arm-none-eabi/10.3.1/thumb/v7/nofp/libgcc.a(_arm_unordsf2.o)
 .ARM.attributes
                0x00000000       0x19 ../tools/GNU_Arm_Toolchain/lib/gcc/arm-none-eabi/10.3.1/thumb/v7/nofp/libgcc.a(_arm_unordsf2.o)
 .data          0x00000000        0x0 ../tools/GNU_Arm_Toolchain/lib/gcc/arm-none-eabi/10.3.1/thumb/v7/nofp/libgcc.a(_aeabi_uldivmod.o)
 .bss           0x00000000        0x0 ../tools/GNU_Arm_Toolchain/lib/gcc/arm-none-eabi/10.3.1/thumb/v7/nofp/libgcc.a(_aeabi_uldivmod.o)
 .data          0x00000000        0x0 ../tools/GNU_Arm_Toolchain/lib/gcc/arm-none-eabi/10.3.1/thumb/v7/nofp/libgcc.a(_fixdfdi.o)
 .bss           0x00000000        0x0 ../tools/GNU_Arm_Toolchain/lib/gcc/arm-none-eabi/10.3.1/thumb/v7/nofp/libgcc.a(_fixdfdi.o)
 .data          0x00000000        0x0 ../tools/GNU_Arm_Toolchain/lib/gcc/arm-none-eabi/10.3.1/thumb/v7/nofp/libgcc.a(_fixunsdfdi.o)
 .bss           0x00000000        0x0 ../tools/GNU_Arm_Toolchain/lib/gcc/arm-none-eabi/10.3.1/thumb/v7/nofp/libgcc.a(_fixunsdfdi.o)
 .data          0x00000000        0x0 ../tools/GNU_Arm_Toolchain/lib/gcc/arm-none-eabi/10.3.1/thumb/v7/nofp/libgcc.a(_udivmoddi4.o)
 .bss           0x00000000        0x0 ../tools/GNU_Arm_Toolchain/lib/gcc/arm-none-eabi/10.3.1/thumb/v7/nofp/libgcc.a(_udivmoddi4.o)
 .ARM.extab     0x00000000        0x0 ../tools/GNU_Arm_Toolchain/lib/gcc/arm-none-eabi/10.3.1/thumb/v7/nofp/libgcc.a(_udivmoddi4.o)

Memory Configuration

Name             Origin             Length             Attributes
APP_RAM          0x7e040800         0x000c0000         xrw
*default*        0x00000000         0xffffffff

Linker script and memory map

LOAD CMakeFiles/nwy_open_app.dir/nwy_test_demo/nwy_test_cli/comm/nwy_test_cli_utils.obj
LOAD CMakeFiles/nwy_open_app.dir/nwy_test_demo/nwy_test_cli/comm/nwy_test_cli_adpt.obj
LOAD CMakeFiles/nwy_open_app.dir/nwy_test_demo/nwy_test_cli/modules/nwy_test_cli_os.obj
LOAD CMakeFiles/nwy_open_app.dir/nwy_test_demo/nwy_test_cli/modules/nwy_test_cli_http.obj
LOAD CMakeFiles/nwy_open_app.dir/nwy_test_demo/nwy_test_cli/modules/nwy_test_cli_sim.obj
LOAD CMakeFiles/nwy_open_app.dir/nwy_test_demo/nwy_test_cli/modules/nwy_test_cli_loc.obj
LOAD CMakeFiles/nwy_open_app.dir/nwy_test_demo/nwy_test_cli/modules/nwy_test_cli_network.obj
LOAD CMakeFiles/nwy_open_app.dir/nwy_test_demo/nwy_test_cli/modules/nwy_test_cli_data.obj
LOAD CMakeFiles/nwy_open_app.dir/nwy_test_demo/nwy_test_cli/modules/nwy_test_cli_fota.obj
LOAD CMakeFiles/nwy_open_app.dir/nwy_test_demo/odt_vts_application/Peripheral_Driver/driver.obj
LOAD CMakeFiles/nwy_open_app.dir/nwy_test_demo/odt_vts_application/Peripheral_Driver/drv_callback.obj
LOAD CMakeFiles/nwy_open_app.dir/nwy_test_demo/odt_vts_application/NET_Application/Network.obj
LOAD CMakeFiles/nwy_open_app.dir/nwy_test_demo/odt_vts_application/VTS_Application/VTS_App.obj
LOAD CMakeFiles/nwy_open_app.dir/nwy_test_demo/odt_vts_application/HTTP_Server/http.obj
LOAD CMakeFiles/nwy_open_app.dir/nwy_test_demo/odt_vts_application/OTA/ota.obj
LOAD CMakeFiles/nwy_open_app.dir/nwy_test_demo/odt_vts_application/SMS/sms.obj
LOAD CMakeFiles/nwy_open_app.dir/nwy_test_demo/odt_vts_application/Flash/flash.obj
LOAD ../build/nwy_open_stub.a
LOAD ../tools/GNU_Arm_Toolchain/arm-none-eabi/lib/thumb/v7/nofp/libc.a
LOAD ../tools/GNU_Arm_Toolchain/arm-none-eabi/lib/thumb/v7/nofp/libnosys.a
LOAD ../tools/GNU_Arm_Toolchain/lib/gcc/arm-none-eabi/10.3.1/thumb/v7/nofp/libgcc.a
LOAD C:/Users/ST/Desktop/N706B-A07-STD-OE_CN1X_ITRI-009_SDK/N706B-A07-STD-OE_CN1X_ITRI-009_SDK/tools/GNU_Arm_Toolchain/arm-none-eabi/lib/thumb/v7/nofp\libm.a

nwy_bin_header  0x7e040800        0xc
 *(nwy_bin_header)
 nwy_bin_header
                0x7e040800        0xc ../build/nwy_open_stub.a(nwy_open_stub.o)
                0x7e040800                nwy_open_app_bin_header

.text           0x7e04080c     0xeba8
 *(nwy_open_asm)
 nwy_open_asm   0x7e04080c     0x1830 ../build/nwy_open_stub.a(nwy_open.o)
                0x7e04080c                nwy_sdk_log_printf
                0x7e04081c                nwy_thread_create
                0x7e04082c                nwy_thread_get_current
                0x7e04083c                nwy_thread_set_priority
                0x7e04084c                nwy_thread_get_priority
                0x7e04085c                nwy_thread_suspend
                0x7e04086c                nwy_thread_resume
                0x7e04087c                nwy_thread_exit
                0x7e04088c                nwy_thread_sleep
                0x7e04089c                nwy_thread_usleep
                0x7e0408ac                nwy_thread_event_send
                0x7e0408bc                nwy_thread_event_front_send
                0x7e0408cc                nwy_thread_event_wait
                0x7e0408dc                nwy_thread_pendingevt_num_get
                0x7e0408ec                nwy_thread_spaceevt_cnt_get
                0x7e0408fc                nwy_thread_info_get
                0x7e04090c                nwy_thread_list_get
                0x7e04091c                nwy_thread_runtime_stats_get
                0x7e04092c                nwy_msg_queue_create
                0x7e04093c                nwy_msg_queue_delete
                0x7e04094c                nwy_msg_queue_send
                0x7e04095c                nwy_msg_queue_front_send
                0x7e04096c                nwy_msg_queue_recv
                0x7e04097c                nwy_msg_queue_pending_num_get
                0x7e04098c                nwy_msg_queue_space_num_get
                0x7e04099c                nwy_sdk_mutex_create
                0x7e0409ac                nwy_sdk_mutex_lock
                0x7e0409bc                nwy_sdk_mutex_unlock
                0x7e0409cc                nwy_sdk_mutex_delete
                0x7e0409dc                nwy_semaphore_create
                0x7e0409ec                nwy_semaphore_acquire
                0x7e0409fc                nwy_semahpore_release
                0x7e040a0c                nwy_semahpore_delete
                0x7e040a1c                nwy_semahpore_count_get
                0x7e040a2c                nwy_sdk_timer_create
                0x7e040a3c                nwy_sdk_timer_destory
                0x7e040a4c                nwy_sdk_timer_start
                0x7e040a5c                nwy_sdk_timer_status_get
                0x7e040a6c                nwy_sdk_timer_stop
                0x7e040a7c                nwy_uptime_get
                0x7e040a8c                nwy_date_set
                0x7e040a9c                nwy_date_get
                0x7e040aac                nwy_sys_timestamp_set
                0x7e040abc                nwy_sys_timestamp_get
                0x7e040acc                nwy_sys_timezone_set
                0x7e040adc                nwy_timestamp_to_date
                0x7e040aec                nwy_date_to_timestamp
                0x7e040afc                nwy_socket_errno
                0x7e040b0c                nwy_socket_open
                0x7e040b1c                nwy_socket_send
                0x7e040b2c                nwy_socket_recv
                0x7e040b3c                nwy_socket_sendto
                0x7e040b4c                nwy_socket_recvfrom
                0x7e040b5c                nwy_socket_setsockopt
                0x7e040b6c                nwy_socket_getsockopt
                0x7e040b7c                nwy_socket_gethost_by_name
                0x7e040b8c                nwy_socket_close
                0x7e040b9c                nwy_socket_shutdown
                0x7e040bac                nwy_socket_connect
                0x7e040bbc                nwy_socket_lport_bind
                0x7e040bcc                nwy_socket_bind
                0x7e040bdc                nwy_socket_listen
                0x7e040bec                nwy_socket_accept
                0x7e040bfc                nwy_socket_get_state
                0x7e040c0c                nwy_socket_select
                0x7e040c1c                nwy_socket_set_nonblock
                0x7e040c2c                nwy_socket_set_reuseaddr
                0x7e040c3c                nwy_socket_set_nodelay
                0x7e040c4c                nwy_socket_set_keepalive
                0x7e040c5c                nwy_socket_set_linger
                0x7e040c6c                nwy_socket_get_ack
                0x7e040c7c                nwy_socket_get_sent
                0x7e040c8c                nwy_socket_inet_ntop
                0x7e040c9c                nwy_socket_inet_pton
                0x7e040cac                nwy_socket_htons
                0x7e040cbc                nwy_socket_ntohs
                0x7e040ccc                nwy_socket_htonl
                0x7e040cdc                nwy_socket_ntohl
                0x7e040cec                nwy_usb_serial_send
                0x7e040cfc                nwy_usb_serial_reg_recv_cb
                0x7e040d0c                malloc
                0x7e040d1c                calloc
                0x7e040d2c                realloc
                0x7e040d3c                free
                0x7e040d4c                nwy_file_open
                0x7e040d5c                nwy_file_read
                0x7e040d6c                nwy_file_write
                0x7e040d7c                nwy_file_tell
                0x7e040d8c                nwy_file_seek
                0x7e040d9c                nwy_file_path_size
                0x7e040dac                nwy_file_fd_size
                0x7e040dbc                nwy_file_exist
                0x7e040dcc                nwy_file_remove
                0x7e040ddc                nwy_file_rename
                0x7e040dec                nwy_file_sync
                0x7e040dfc                nwy_file_fd_trunc
                0x7e040e0c                nwy_file_path_trunc
                0x7e040e1c                nwy_file_path_stat_get
                0x7e040e2c                nwy_file_fd_stat_get
                0x7e040e3c                nwy_file_close
                0x7e040e4c                nwy_dir_mk
                0x7e040e5c                nwy_dir_rm
                0x7e040e6c                nwy_dir_recursive_rm
                0x7e040e7c                nwy_dir_open
                0x7e040e8c                nwy_dir_close
                0x7e040e9c                nwy_dir_read
                0x7e040eac                nwy_dir_tell
                0x7e040ebc                nwy_dir_seek
                0x7e040ecc                nwy_dir_rewind
                0x7e040edc                nwy_vfs_free_size_get
                0x7e040eec                nwy_dm_dev_model_get
                0x7e040efc                nwy_dm_inner_version_get
                0x7e040f0c                nwy_dm_open_sdk_version_get
                0x7e040f1c                nwy_dm_hw_version_get
                0x7e040f2c                nwy_dm_rftemperature_get
                0x7e040f3c                nwy_dm_sn_get
                0x7e040f4c                nwy_dm_imei_get
                0x7e040f5c                nwy_dm_app_version_set
                0x7e040f6c                nwy_dm_imei_set
                0x7e040f7c                nwy_dm_heapinfo
                0x7e040f8c                nwy_dm_nvinfo_get
                0x7e040f9c                nwy_ftp_login
                0x7e040fac                nwy_ftp_logout
                0x7e040fbc                nwy_ftp_get
                0x7e040fcc                nwy_ftp_put
                0x7e040fdc                nwy_ftp_get_filesize
                0x7e040fec                nwy_ftp_del_file
                0x7e040ffc                nwy_http_setup
                0x7e04100c                nwy_http_get
                0x7e04101c                nwy_http_head
                0x7e04102c                nwy_http_post
                0x7e04103c                nwy_http_put
                0x7e04104c                nwy_http_open_mode
                0x7e04105c                nwy_http_close
                0x7e04106c                nwy_sntp_get_time
                0x7e04107c                nwy_sim_imsi_get
                0x7e04108c                nwy_sim_iccid_get
                0x7e04109c                nwy_sim_status_get
                0x7e0410ac                nwy_sim_pin_verify
                0x7e0410bc                nwy_sim_pin_unlock
                0x7e0410cc                nwy_sim_pin_mode_get
                0x7e0410dc                nwy_sim_pin_enable
                0x7e0410ec                nwy_sim_pin_disable
                0x7e0410fc                nwy_sim_pin_change
                0x7e04110c                nwy_sim_pin_times_get
                0x7e04111c                nwy_sim_msisdn_get
                0x7e04112c                nwy_sim_slot_set
                0x7e04113c                nwy_sim_slot_get
                0x7e04114c                nwy_sim_reset
                0x7e04115c                nwy_sim_power_set
                0x7e04116c                nwy_sim_detect_set
                0x7e04117c                nwy_sim_csim
                0x7e04118c                nwy_sim_urc_reg
                0x7e04119c                nwy_sim_urc_unreg
                0x7e0411ac                nwy_pm_ctrl
                0x7e0411bc                nwy_pm_state_set
                0x7e0411cc                nwy_bootup_alarm_set
                0x7e0411dc                nwy_bootup_alarm_del
                0x7e0411ec                nwy_power_state
                0x7e0411fc                nwy_pm_boot_res
                0x7e04120c                nwy_loc_navigation_start
                0x7e04121c                nwy_loc_navigation_stop
                0x7e04122c                nwy_loc_navigation_reset
                0x7e04123c                nwy_loc_recv_cb_reg
                0x7e04124c                nwy_loc_mode_set
                0x7e04125c                nwy_loc_startup_set
                0x7e04126c                nwy_loc_rate_set
                0x7e04127c                nwy_loc_cfg_nmea_type
                0x7e04128c                nwy_loc_nmea_get
                0x7e04129c                nwy_loc_nmea_parse
                0x7e0412ac                nwy_loc_agnss_start
                0x7e0412bc                nwy_loc_param_set
                0x7e0412cc                nwy_loc_param_get
                0x7e0412dc                nwy_data_reg_cb
                0x7e0412ec                nwy_data_unreg_cb
                0x7e0412fc                nwy_data_call_start
                0x7e04130c                nwy_data_call_stop
                0x7e04131c                nwy_data_profile_get
                0x7e04132c                nwy_data_profile_set
                0x7e04133c                nwy_data_auto_connect_set
                0x7e04134c                nwy_data_call_info_get
                0x7e04135c                nwy_data_flow_info_get
                0x7e04136c                nwy_data_eps_dyn_apn_get
                0x7e04137c                nwy_data_dhcp_get
                0x7e04138c                nwy_data_dhcp_set
                0x7e04139c                nwy_data_dns_info_get
                0x7e0413ac                nwy_data_get_capability
                0x7e0413bc                mbedtls_ssl_conf_max_version
                0x7e0413cc                mbedtls_ssl_conf_min_version
                0x7e0413dc                mbedtls_ssl_conf_authmode
                0x7e0413ec                mbedtls_ssl_conf_ca_chain
                0x7e0413fc                mbedtls_ssl_conf_own_cert
                0x7e04140c                mbedtls_ssl_conf_rng
                0x7e04141c                mbedtls_ssl_conf_dbg
                0x7e04142c                mbedtls_ssl_setup
                0x7e04143c                mbedtls_ssl_set_hostname
                0x7e04144c                mbedtls_ssl_set_bio
                0x7e04145c                mbedtls_ssl_handshake
                0x7e04146c                mbedtls_ssl_get_verify_result
                0x7e04147c                mbedtls_net_connect
                0x7e04148c                mbedtls_net_init
                0x7e04149c                mbedtls_net_bind
                0x7e0414ac                mbedtls_net_accept
                0x7e0414bc                mbedtls_net_poll
                0x7e0414cc                mbedtls_net_set_block
                0x7e0414dc                mbedtls_net_set_nonblock
                0x7e0414ec                mbedtls_net_usleep
                0x7e0414fc                mbedtls_net_recv
                0x7e04150c                mbedtls_net_send
                0x7e04151c                mbedtls_net_recv_timeout
                0x7e04152c                mbedtls_net_free
                0x7e04153c                mbedtls_pk_init
                0x7e04154c                mbedtls_pk_free
                0x7e04155c                mbedtls_ssl_init
                0x7e04156c                mbedtls_ssl_read
                0x7e04157c                mbedtls_ssl_write
                0x7e04158c                mbedtls_ssl_send_alert_message
                0x7e04159c                mbedtls_ssl_close_notify
                0x7e0415ac                mbedtls_ssl_free
                0x7e0415bc                mbedtls_ssl_config_init
                0x7e0415cc                mbedtls_ssl_config_defaults
                0x7e0415dc                mbedtls_ssl_config_free
                0x7e0415ec                mbedtls_ssl_session_init
                0x7e0415fc                mbedtls_ssl_session_free
                0x7e04160c                mbedtls_ssl_conf_read_timeout
                0x7e04161c                mbedtls_ssl_set_timer_cb
                0x7e04162c                mbedtls_platform_set_calloc_free
                0x7e04163c                mbedtls_x509_crt_parse_der
                0x7e04164c                mbedtls_x509_crt_parse
                0x7e04165c                mbedtls_x509_crt_info
                0x7e04166c                mbedtls_x509_crt_verify_info
                0x7e04167c                mbedtls_x509_crt_verify
                0x7e04168c                mbedtls_x509_crt_verify_with_profile
                0x7e04169c                mbedtls_x509_crt_verify_restartable
                0x7e0416ac                mbedtls_x509_crt_init
                0x7e0416bc                mbedtls_x509_crt_free
                0x7e0416cc                mbedtls_pk_parse_key
                0x7e0416dc                mbedtls_entropy_free
                0x7e0416ec                mbedtls_entropy_init
                0x7e0416fc                mbedtls_entropy_func
                0x7e04170c                mbedtls_ctr_drbg_random
                0x7e04171c                mbedtls_ctr_drbg_free
                0x7e04172c                mbedtls_ctr_drbg_seed
                0x7e04173c                mbedtls_ctr_drbg_init
                0x7e04174c                mbedtls_ssl_get_bytes_avail
                0x7e04175c                mbedtls_ssl_conf_ciphersuites
                0x7e04176c                mbedtls_sha1_init
                0x7e04177c                mbedtls_sha1_update
                0x7e04178c                mbedtls_sha1_finish
                0x7e04179c                mbedtls_base64_encode
                0x7e0417ac                mbedtls_ssl_session_reset
                0x7e0417bc                mbedtls_pk_get_type
                0x7e0417cc                mbedtls_ssl_conf_renegotiation
                0x7e0417dc                mbedtls_ssl_set_session
                0x7e0417ec                mbedtls_aes_init
                0x7e0417fc                mbedtls_aes_free
                0x7e04180c                mbedtls_aes_xts_init
                0x7e04181c                mbedtls_aes_xts_free
                0x7e04182c                mbedtls_aes_setkey_enc
                0x7e04183c                mbedtls_aes_setkey_dec
                0x7e04184c                mbedtls_aes_xts_setkey_enc
                0x7e04185c                mbedtls_aes_xts_setkey_dec
                0x7e04186c                mbedtls_aes_crypt_ecb
                0x7e04187c                mbedtls_aes_crypt_cbc
                0x7e04188c                mbedtls_aes_crypt_xts
                0x7e04189c                mbedtls_aes_crypt_cfb128
                0x7e0418ac                mbedtls_aes_crypt_cfb8
                0x7e0418bc                mbedtls_aes_crypt_ofb
                0x7e0418cc                mbedtls_aes_crypt_ctr
                0x7e0418dc                nwy_ssl_version_info_get
                0x7e0418ec                mbedtls_internal_aes_encrypt
                0x7e0418fc                mbedtls_internal_aes_decrypt
                0x7e04190c                psa_crypto_init
                0x7e04191c                nwy_usb_net_mode_set
                0x7e04192c                nwy_usb_net_mode_get
                0x7e04193c                nwy_i2c_init
                0x7e04194c                nwy_i2c_read
                0x7e04195c                nwy_i2c_write
                0x7e04196c                nwy_i2c_deinit
                0x7e04197c                nwy_i2c_raw_get_byte
                0x7e04198c                nwy_i2c_raw_put_byte
                0x7e04199c                nwy_spi_init
                0x7e0419ac                nwy_spi_cs_cfg
                0x7e0419bc                nwy_spi_transfer
                0x7e0419cc                nwy_spi_deinit
                0x7e0419dc                nwy_spi_read
                0x7e0419ec                nwy_spi_write
                0x7e0419fc                nwy_sms_option_init
                0x7e041a0c                nwy_sms_storage_set
                0x7e041a1c                nwy_sms_storage_get
                0x7e041a2c                nwy_sms_report_set
                0x7e041a3c                nwy_sms_sca_set
                0x7e041a4c                nwy_sms_sca_get
                0x7e041a5c                nwy_sms_msg_send
                0x7e041a6c                nwy_sms_recv_cb_reg
                0x7e041a7c                nwy_sms_recv_cb_unreg
                0x7e041a8c                nwy_sms_msg_del
                0x7e041a9c                nwy_sms_msg_read
                0x7e041aac                nwy_sms_msg_del_ext
                0x7e041abc                nwy_sms_msg_list_read
                0x7e041acc                nwy_nw_mode_get
                0x7e041adc                nwy_nw_mode_set
                0x7e041aec                nwy_nw_priband_get
                0x7e041afc                nwy_nw_priband_set
                0x7e041b0c                nwy_nw_ims_get
                0x7e041b1c                nwy_nw_ims_set
                0x7e041b2c                nwy_nw_radio_get
                0x7e041b3c                nwy_nw_radio_set
                0x7e041b4c                nwy_nw_config_get
                0x7e041b5c                nwy_nw_config_set
                0x7e041b6c                nwy_nw_operator_get
                0x7e041b7c                nwy_nw_csq_get
                0x7e041b8c                nwy_nw_signal_get
                0x7e041b9c                nwy_nw_regstatus_get
                0x7e041bac                nwy_nw_cellinfo_get
                0x7e041bbc                nwy_nw_lock_set
                0x7e041bcc                nwy_nw_lock_get
                0x7e041bdc                nwy_nw_manual_select
                0x7e041bec                nwy_nw_scan
                0x7e041bfc                nwy_nw_psm_get
                0x7e041c0c                nwy_nw_psm_set
                0x7e041c1c                nwy_nw_get_forbidden_plmn
                0x7e041c2c                nwy_nw_reg_cb
                0x7e041c3c                nwy_nw_unreg_cb
                0x7e041c4c                nwy_get_time_zone_switch
                0x7e041c5c                nwy_set_time_zone_switch
                0x7e041c6c                nwy_dm_nwcfg_get
                0x7e041c7c                nwy_dm_nwcfg_set
                0x7e041c8c                nwy_virt_at_parameter_init
                0x7e041c9c                nwy_virt_at_cmd_send
                0x7e041cac                nwy_virt_at_unsolicited_cb_reg
                0x7e041cbc                nwy_virt_at_get_original_rsp_cb
                0x7e041ccc                nwy_virt_at_forward_cb
                0x7e041cdc                nwy_virt_at_forward_send
                0x7e041cec                nwy_pm_vbat_voltage_get
                0x7e041cfc                nwy_ping_start
                0x7e041d0c                NetworkInit
                0x7e041d1c                NetworkConnect
                0x7e041d2c                NetworkDisconnect
                0x7e041d3c                MQTTClientInit
                0x7e041d4c                MQTTConnect
                0x7e041d5c                MQTTPublish
                0x7e041d6c                MQTTSetMessageHandler
                0x7e041d7c                MQTTSubscribe
                0x7e041d8c                MQTTUnsubscribe
                0x7e041d9c                MQTTDisconnect
                0x7e041dac                MQTTYield
                0x7e041dbc                MQTTIsConnected
                0x7e041dcc                nwy_gpio_direction_get
                0x7e041ddc                nwy_gpio_direction_set
                0x7e041dec                nwy_gpio_value_get
                0x7e041dfc                nwy_gpio_value_set
                0x7e041e0c                nwy_gpio_pull_get
                0x7e041e1c                nwy_gpio_pull_set
                0x7e041e2c                nwy_gpio_irq_register
                0x7e041e3c                nwy_gpio_irq_enable
                0x7e041e4c                nwy_gpio_irq_disable
                0x7e041e5c                nwy_gpio_irq_wakeup_enable
                0x7e041e6c                nwy_gpio_irq_wakeup_disable
                0x7e041e7c                nwy_gpio_close
                0x7e041e8c                nwy_uart_open
                0x7e041e9c                nwy_uart_read
                0x7e041eac                nwy_uart_write
                0x7e041ebc                nwy_uart_dcb_set
                0x7e041ecc                nwy_uart_dcb_get
                0x7e041edc                nwy_uart_close
                0x7e041eec                nwy_uart_rx_cb_register
                0x7e041efc                nwy_uart_tx_cb_register
                0x7e041f0c                nwy_uart_rx_frame_timeout_set
                0x7e041f1c                nwy_adc_get
                0x7e041f2c                nwy_dev_name_list_get
                0x7e041f3c                nwy_sat_set_on_off
                0x7e041f4c                nwy_sat_get_on_off
                0x7e041f5c                nwy_sat_terminal_response
                0x7e041f6c                nwy_sat_envelope_command
                0x7e041f7c                nwy_sat_set_profile
                0x7e041f8c                nwy_sat_get_profile
                0x7e041f9c                nwy_sat_recv_data
                0x7e041fac                nwy_fota_write
                0x7e041fbc                nwy_fota_update
                0x7e041fcc                nwy_fota_result_get
                0x7e041fdc                nwy_fota_base_ver_update
                0x7e041fec                nwy_vfs_logical_block_device_create
                0x7e041ffc                nwy_vfs_mount
                0x7e04200c                nwy_vfs_unmount
                0x7e04201c                nwy_vfs_mkfs
                0x7e04202c                nwy_dm_soc_model_get
 *(.text*)
 .text.nwy_test_cli_echo
                0x7e04203c       0x6c CMakeFiles/nwy_open_app.dir/nwy_test_demo/nwy_test_cli/comm/nwy_test_cli_utils.obj
                0x7e04203c                nwy_test_cli_echo
 .text.nwy_test_cli_main_func
                0x7e0420a8        0xc CMakeFiles/nwy_open_app.dir/nwy_test_demo/nwy_test_cli/comm/nwy_test_cli_adpt.obj
 .text.nwy_test_cli_dbg
                0x7e0420b4       0x54 CMakeFiles/nwy_open_app.dir/nwy_test_demo/nwy_test_cli/comm/nwy_test_cli_adpt.obj
                0x7e0420b4                nwy_test_cli_dbg
 .text.nwy_open_app_entry
                0x7e042108       0xd0 CMakeFiles/nwy_open_app.dir/nwy_test_demo/nwy_test_cli/comm/nwy_test_cli_adpt.obj
                0x7e042108                nwy_open_app_entry
 .text.UART_Debug_Send
                0x7e0421d8       0x10 CMakeFiles/nwy_open_app.dir/nwy_test_demo/odt_vts_application/Peripheral_Driver/driver.obj
                0x7e0421d8                UART_Debug_Send
 .text.RTC_Date_Time_Set
                0x7e0421e8        0x4 CMakeFiles/nwy_open_app.dir/nwy_test_demo/odt_vts_application/Peripheral_Driver/driver.obj
                0x7e0421e8                RTC_Date_Time_Set
 .text.RTC_Date_Time_Get
                0x7e0421ec       0x14 CMakeFiles/nwy_open_app.dir/nwy_test_demo/odt_vts_application/Peripheral_Driver/driver.obj
                0x7e0421ec                RTC_Date_Time_Get
 .text.Read_CP_ADC
                0x7e042200        0xa CMakeFiles/nwy_open_app.dir/nwy_test_demo/odt_vts_application/Peripheral_Driver/driver.obj
                0x7e042200                Read_CP_ADC
 .text.GPIO_Set_Output
                0x7e04220a       0x1e CMakeFiles/nwy_open_app.dir/nwy_test_demo/odt_vts_application/Peripheral_Driver/driver.obj
                0x7e04220a                GPIO_Set_Output
 .text.Get_Default_Config
                0x7e042228       0x70 CMakeFiles/nwy_open_app.dir/nwy_test_demo/odt_vts_application/Peripheral_Driver/driver.obj
                0x7e042228                Get_Default_Config
 .text.odt_vts_dbgPrintf
                0x7e042298       0x80 CMakeFiles/nwy_open_app.dir/nwy_test_demo/odt_vts_application/Peripheral_Driver/driver.obj
                0x7e042298                odt_vts_dbgPrintf
 .text.Init_Debug_UART
                0x7e042318       0x38 CMakeFiles/nwy_open_app.dir/nwy_test_demo/odt_vts_application/Peripheral_Driver/driver.obj
                0x7e042318                Init_Debug_UART
 .text.Init_Usr_Timer
                0x7e042350       0x60 CMakeFiles/nwy_open_app.dir/nwy_test_demo/odt_vts_application/Peripheral_Driver/driver.obj
                0x7e042350                Init_Usr_Timer
 .text.Init_Peripheral_Drivers
                0x7e0423b0        0xe CMakeFiles/nwy_open_app.dir/nwy_test_demo/odt_vts_application/Peripheral_Driver/driver.obj
                0x7e0423b0                Init_Peripheral_Drivers
 *fill*         0x7e0423be        0x2 
 .text.Usr_Timer_Callback
                0x7e0423c0       0x3c CMakeFiles/nwy_open_app.dir/nwy_test_demo/odt_vts_application/Peripheral_Driver/drv_callback.obj
                0x7e0423c0                Usr_Timer_Callback
 .text.nwy_sms_test_recv_cb
                0x7e0423fc       0x88 CMakeFiles/nwy_open_app.dir/nwy_test_demo/odt_vts_application/Peripheral_Driver/drv_callback.obj
                0x7e0423fc                nwy_sms_test_recv_cb
 .text.Set_profile
                0x7e042484       0xa0 CMakeFiles/nwy_open_app.dir/nwy_test_demo/odt_vts_application/NET_Application/Network.obj
 .text.GET_SIM_Status
                0x7e042524       0x4c CMakeFiles/nwy_open_app.dir/nwy_test_demo/odt_vts_application/NET_Application/Network.obj
                0x7e042524                GET_SIM_Status
 .text.Set_Network_Reg
                0x7e042570       0x5c CMakeFiles/nwy_open_app.dir/nwy_test_demo/odt_vts_application/NET_Application/Network.obj
                0x7e042570                Set_Network_Reg
 .text.Network_Polling
                0x7e0425cc      0x20c CMakeFiles/nwy_open_app.dir/nwy_test_demo/odt_vts_application/NET_Application/Network.obj
                0x7e0425cc                Network_Polling
 .text.Get_Cell_Info
                0x7e0427d8       0x40 CMakeFiles/nwy_open_app.dir/nwy_test_demo/odt_vts_application/VTS_Application/VTS_App.obj
 .text.Prepare_JsonFrame
                0x7e042818       0x28 CMakeFiles/nwy_open_app.dir/nwy_test_demo/odt_vts_application/VTS_Application/VTS_App.obj
 .text.Get_Battery_Volt
                0x7e042840       0x34 CMakeFiles/nwy_open_app.dir/nwy_test_demo/odt_vts_application/VTS_Application/VTS_App.obj
                0x7e042840                Get_Battery_Volt
 .text.Get_Location
                0x7e042874       0xa8 CMakeFiles/nwy_open_app.dir/nwy_test_demo/odt_vts_application/VTS_Application/VTS_App.obj
                0x7e042874                Get_Location
 .text.Prepare_http_frame
                0x7e04291c      0x170 CMakeFiles/nwy_open_app.dir/nwy_test_demo/odt_vts_application/VTS_Application/VTS_App.obj
                0x7e04291c                Prepare_http_frame
 .text.VTS_App_Polling
                0x7e042a8c      0x1ec CMakeFiles/nwy_open_app.dir/nwy_test_demo/odt_vts_application/VTS_Application/VTS_App.obj
                0x7e042a8c                VTS_App_Polling
 .text.HTTP_Setup
                0x7e042c78       0x68 CMakeFiles/nwy_open_app.dir/nwy_test_demo/odt_vts_application/HTTP_Server/http.obj
                0x7e042c78                HTTP_Setup
 .text.HTTP_Close
                0x7e042ce0        0xc CMakeFiles/nwy_open_app.dir/nwy_test_demo/odt_vts_application/HTTP_Server/http.obj
                0x7e042ce0                HTTP_Close
 .text.parse_datetime
                0x7e042cec       0x98 CMakeFiles/nwy_open_app.dir/nwy_test_demo/odt_vts_application/HTTP_Server/http.obj
                0x7e042cec                parse_datetime
 .text.HTTP_Event_CallBack
                0x7e042d84      0x218 CMakeFiles/nwy_open_app.dir/nwy_test_demo/odt_vts_application/HTTP_Server/http.obj
 .text.nwy_cli_ftp_fota_result_cb
                0x7e042f9c      0x298 CMakeFiles/nwy_open_app.dir/nwy_test_demo/odt_vts_application/OTA/ota.obj
 .text.Ota_init
                0x7e043234      0x118 CMakeFiles/nwy_open_app.dir/nwy_test_demo/odt_vts_application/OTA/ota.obj
                0x7e043234                Ota_init
 .text.Init_SMS
                0x7e04334c       0x2c CMakeFiles/nwy_open_app.dir/nwy_test_demo/odt_vts_application/SMS/sms.obj
                0x7e04334c                Init_SMS
 .text.SMS_Recv_Handler
                0x7e043378      0x350 CMakeFiles/nwy_open_app.dir/nwy_test_demo/odt_vts_application/SMS/sms.obj
                0x7e043378                SMS_Recv_Handler
 .text.Read_SMS
                0x7e0436c8       0x70 CMakeFiles/nwy_open_app.dir/nwy_test_demo/odt_vts_application/SMS/sms.obj
                0x7e0436c8                Read_SMS
 .text.Check_VTSflash
                0x7e043738       0x4c CMakeFiles/nwy_open_app.dir/nwy_test_demo/odt_vts_application/Flash/flash.obj
                0x7e043738                Check_VTSflash
 .text.Make_VTSflash_Dir
                0x7e043784       0x28 CMakeFiles/nwy_open_app.dir/nwy_test_demo/odt_vts_application/Flash/flash.obj
                0x7e043784                Make_VTSflash_Dir
 .text.Read_from_file
                0x7e0437ac       0xe4 CMakeFiles/nwy_open_app.dir/nwy_test_demo/odt_vts_application/Flash/flash.obj
                0x7e0437ac                Read_from_file
 .text.Flash_Read
                0x7e043890       0x1c CMakeFiles/nwy_open_app.dir/nwy_test_demo/odt_vts_application/Flash/flash.obj
                0x7e043890                Flash_Read
 .text.Write_to_File
                0x7e0438ac       0x8c CMakeFiles/nwy_open_app.dir/nwy_test_demo/odt_vts_application/Flash/flash.obj
                0x7e0438ac                Write_to_File
 .text.Flash_Write
                0x7e043938       0x4c CMakeFiles/nwy_open_app.dir/nwy_test_demo/odt_vts_application/Flash/flash.obj
                0x7e043938                Flash_Write
 .text.atoi     0x7e043984        0x8 ../tools/GNU_Arm_Toolchain/arm-none-eabi/lib/thumb/v7/nofp/libc.a(lib_a-atoi.o)
                0x7e043984                atoi
 .text          0x7e04398c       0xec ../tools/GNU_Arm_Toolchain/arm-none-eabi/lib/thumb/v7/nofp/libc.a(lib_a-memcpy.o)
                0x7e04398c                memcpy
 .text.memset   0x7e043a78       0xa4 ../tools/GNU_Arm_Toolchain/arm-none-eabi/lib/thumb/v7/nofp/libc.a(lib_a-memset.o)
                0x7e043a78                memset
 .text.snprintf
                0x7e043b1c       0x8c ../tools/GNU_Arm_Toolchain/arm-none-eabi/lib/thumb/v7/nofp/libc.a(lib_a-snprintf.o)
                0x7e043b1c                snprintf
 .text.sprintf  0x7e043ba8       0x44 ../tools/GNU_Arm_Toolchain/arm-none-eabi/lib/thumb/v7/nofp/libc.a(lib_a-sprintf.o)
                0x7e043ba8                sprintf
 .text.sscanf   0x7e043bec       0x5c ../tools/GNU_Arm_Toolchain/arm-none-eabi/lib/thumb/v7/nofp/libc.a(lib_a-sscanf.o)
                0x7e043bec                sscanf
 .text.__sread  0x7e043c48       0x24 ../tools/GNU_Arm_Toolchain/arm-none-eabi/lib/thumb/v7/nofp/libc.a(lib_a-stdio.o)
                0x7e043c48                __sread
 .text.__seofread
                0x7e043c6c        0x4 ../tools/GNU_Arm_Toolchain/arm-none-eabi/lib/thumb/v7/nofp/libc.a(lib_a-stdio.o)
                0x7e043c6c                __seofread
 .text.__swrite
                0x7e043c70       0x40 ../tools/GNU_Arm_Toolchain/arm-none-eabi/lib/thumb/v7/nofp/libc.a(lib_a-stdio.o)
                0x7e043c70                __swrite
 .text.__sseek  0x7e043cb0       0x20 ../tools/GNU_Arm_Toolchain/arm-none-eabi/lib/thumb/v7/nofp/libc.a(lib_a-stdio.o)
                0x7e043cb0                __sseek
 .text.__sclose
                0x7e043cd0        0x8 ../tools/GNU_Arm_Toolchain/arm-none-eabi/lib/thumb/v7/nofp/libc.a(lib_a-stdio.o)
                0x7e043cd0                __sclose
 .text.strcat   0x7e043cd8       0x40 ../tools/GNU_Arm_Toolchain/arm-none-eabi/lib/thumb/v7/nofp/libc.a(lib_a-strcat.o)
                0x7e043cd8                strcat
 .text.strchr   0x7e043d18       0xcc ../tools/GNU_Arm_Toolchain/arm-none-eabi/lib/thumb/v7/nofp/libc.a(lib_a-strchr.o)
                0x7e043d18                strchr
 .text          0x7e043de4      0x1bc ../tools/GNU_Arm_Toolchain/arm-none-eabi/lib/thumb/v7/nofp/libc.a(lib_a-strcmp.o)
                0x7e043de4                strcmp
 .text.strcpy   0x7e043fa0       0xbc ../tools/GNU_Arm_Toolchain/arm-none-eabi/lib/thumb/v7/nofp/libc.a(lib_a-strcpy.o)
                0x7e043fa0                strcpy
 .text.strlen   0x7e04405c       0x5c ../tools/GNU_Arm_Toolchain/arm-none-eabi/lib/thumb/v7/nofp/libc.a(lib_a-strlen-stub.o)
                0x7e04405c                strlen
 .text.strncmp  0x7e0440b8       0x78 ../tools/GNU_Arm_Toolchain/arm-none-eabi/lib/thumb/v7/nofp/libc.a(lib_a-strncmp.o)
                0x7e0440b8                strncmp
 .text.strncpy  0x7e044130       0x70 ../tools/GNU_Arm_Toolchain/arm-none-eabi/lib/thumb/v7/nofp/libc.a(lib_a-strncpy.o)
                0x7e044130                strncpy
 .text.two_way_long_needle
                0x7e0441a0      0x2bc ../tools/GNU_Arm_Toolchain/arm-none-eabi/lib/thumb/v7/nofp/libc.a(lib_a-strstr.o)
 .text.strstr   0x7e04445c      0x174 ../tools/GNU_Arm_Toolchain/arm-none-eabi/lib/thumb/v7/nofp/libc.a(lib_a-strstr.o)
                0x7e04445c                strstr
 .text._strtol_l.part.0
                0x7e0445d0      0x124 ../tools/GNU_Arm_Toolchain/arm-none-eabi/lib/thumb/v7/nofp/libc.a(lib_a-strtol.o)
 .text._strtol_r
                0x7e0446f4       0x2c ../tools/GNU_Arm_Toolchain/arm-none-eabi/lib/thumb/v7/nofp/libc.a(lib_a-strtol.o)
                0x7e0446f4                _strtol_r
 .text.strtol   0x7e044720       0x40 ../tools/GNU_Arm_Toolchain/arm-none-eabi/lib/thumb/v7/nofp/libc.a(lib_a-strtol.o)
                0x7e044720                strtol
 .text._svfprintf_r
                0x7e044760     0x1aac ../tools/GNU_Arm_Toolchain/arm-none-eabi/lib/thumb/v7/nofp/libc.a(lib_a-svfprintf.o)
                0x7e044760                _svfprintf_r
 .text.__ssvfscanf_r
                0x7e04620c     0x1724 ../tools/GNU_Arm_Toolchain/arm-none-eabi/lib/thumb/v7/nofp/libc.a(lib_a-svfscanf.o)
                0x7e04620c                __ssvfscanf_r
 .text.vsnprintf
                0x7e047930       0x78 ../tools/GNU_Arm_Toolchain/arm-none-eabi/lib/thumb/v7/nofp/libc.a(lib_a-vsnprintf.o)
                0x7e047930                vsnprintf
 .text._write_r
                0x7e0479a8       0x30 ../tools/GNU_Arm_Toolchain/arm-none-eabi/lib/thumb/v7/nofp/libc.a(lib_a-writer.o)
                0x7e0479a8                _write_r
 .text.__swsetup_r
                0x7e0479d8       0xd0 ../tools/GNU_Arm_Toolchain/arm-none-eabi/lib/thumb/v7/nofp/libc.a(lib_a-wsetup.o)
                0x7e0479d8                __swsetup_r
 .text._close_r
                0x7e047aa8       0x28 ../tools/GNU_Arm_Toolchain/arm-none-eabi/lib/thumb/v7/nofp/libc.a(lib_a-closer.o)
                0x7e047aa8                _close_r
 .text.quorem   0x7e047ad0      0x130 ../tools/GNU_Arm_Toolchain/arm-none-eabi/lib/thumb/v7/nofp/libc.a(lib_a-dtoa.o)
 .text._dtoa_r  0x7e047c00      0xf44 ../tools/GNU_Arm_Toolchain/arm-none-eabi/lib/thumb/v7/nofp/libc.a(lib_a-dtoa.o)
                0x7e047c00                _dtoa_r
 .text.__errno  0x7e048b44        0xc ../tools/GNU_Arm_Toolchain/arm-none-eabi/lib/thumb/v7/nofp/libc.a(lib_a-errno.o)
                0x7e048b44                __errno
 .text.__sflush_r
                0x7e048b50      0x148 ../tools/GNU_Arm_Toolchain/arm-none-eabi/lib/thumb/v7/nofp/libc.a(lib_a-fflush.o)
                0x7e048b50                __sflush_r
 .text._fflush_r
                0x7e048c98       0x5c ../tools/GNU_Arm_Toolchain/arm-none-eabi/lib/thumb/v7/nofp/libc.a(lib_a-fflush.o)
                0x7e048c98                _fflush_r
 .text._cleanup_r
                0x7e048cf4        0xc ../tools/GNU_Arm_Toolchain/arm-none-eabi/lib/thumb/v7/nofp/libc.a(lib_a-findfp.o)
                0x7e048cf4                _cleanup_r
 .text.__sinit  0x7e048d00      0x11c ../tools/GNU_Arm_Toolchain/arm-none-eabi/lib/thumb/v7/nofp/libc.a(lib_a-findfp.o)
                0x7e048d00                __sinit
 .text.__sfp_lock_acquire
                0x7e048e1c        0xc ../tools/GNU_Arm_Toolchain/arm-none-eabi/lib/thumb/v7/nofp/libc.a(lib_a-findfp.o)
                0x7e048e1c                __sfp_lock_acquire
 .text.__sfp_lock_release
                0x7e048e28        0xc ../tools/GNU_Arm_Toolchain/arm-none-eabi/lib/thumb/v7/nofp/libc.a(lib_a-findfp.o)
                0x7e048e28                __sfp_lock_release
 .text._malloc_trim_r
                0x7e048e34       0xac ../tools/GNU_Arm_Toolchain/arm-none-eabi/lib/thumb/v7/nofp/libc.a(lib_a-freer.o)
                0x7e048e34                _malloc_trim_r
 .text._free_r  0x7e048ee0      0x21c ../tools/GNU_Arm_Toolchain/arm-none-eabi/lib/thumb/v7/nofp/libc.a(lib_a-freer.o)
                0x7e048ee0                _free_r
 .text._fwalk_reent
                0x7e0490fc       0x40 ../tools/GNU_Arm_Toolchain/arm-none-eabi/lib/thumb/v7/nofp/libc.a(lib_a-fwalk.o)
                0x7e0490fc                _fwalk_reent
 .text.iswspace
                0x7e04913c        0x8 ../tools/GNU_Arm_Toolchain/arm-none-eabi/lib/thumb/v7/nofp/libc.a(lib_a-iswspace.o)
                0x7e04913c                iswspace
 .text.iswspace_l
                0x7e049144       0x14 ../tools/GNU_Arm_Toolchain/arm-none-eabi/lib/thumb/v7/nofp/libc.a(lib_a-iswspace_l.o)
                0x7e049144                iswspace_l
 .text.__locale_mb_cur_max
                0x7e049158       0x10 ../tools/GNU_Arm_Toolchain/arm-none-eabi/lib/thumb/v7/nofp/libc.a(lib_a-locale.o)
                0x7e049158                __locale_mb_cur_max
 .text._localeconv_r
                0x7e049168        0x8 ../tools/GNU_Arm_Toolchain/arm-none-eabi/lib/thumb/v7/nofp/libc.a(lib_a-localeconv.o)
                0x7e049168                _localeconv_r
 .text.__retarget_lock_init_recursive
                0x7e049170        0x4 ../tools/GNU_Arm_Toolchain/arm-none-eabi/lib/thumb/v7/nofp/libc.a(lib_a-lock.o)
                0x7e049170                __retarget_lock_init_recursive
 .text.__retarget_lock_close_recursive
                0x7e049174        0x4 ../tools/GNU_Arm_Toolchain/arm-none-eabi/lib/thumb/v7/nofp/libc.a(lib_a-lock.o)
                0x7e049174                __retarget_lock_close_recursive
 .text.__retarget_lock_acquire_recursive
                0x7e049178        0x4 ../tools/GNU_Arm_Toolchain/arm-none-eabi/lib/thumb/v7/nofp/libc.a(lib_a-lock.o)
                0x7e049178                __retarget_lock_acquire_recursive
 .text.__retarget_lock_release_recursive
                0x7e04917c        0x4 ../tools/GNU_Arm_Toolchain/arm-none-eabi/lib/thumb/v7/nofp/libc.a(lib_a-lock.o)
                0x7e04917c                __retarget_lock_release_recursive
 .text._lseek_r
                0x7e049180       0x30 ../tools/GNU_Arm_Toolchain/arm-none-eabi/lib/thumb/v7/nofp/libc.a(lib_a-lseekr.o)
                0x7e049180                _lseek_r
 .text.__smakebuf_r
                0x7e0491b0       0xe4 ../tools/GNU_Arm_Toolchain/arm-none-eabi/lib/thumb/v7/nofp/libc.a(lib_a-makebuf.o)
                0x7e0491b0                __smakebuf_r
 .text._malloc_r
                0x7e049294      0x558 ../tools/GNU_Arm_Toolchain/arm-none-eabi/lib/thumb/v7/nofp/libc.a(lib_a-mallocr.o)
                0x7e049294                _malloc_r
 .text._mbrtowc_r
                0x7e0497ec       0x48 ../tools/GNU_Arm_Toolchain/arm-none-eabi/lib/thumb/v7/nofp/libc.a(lib_a-mbrtowc.o)
                0x7e0497ec                _mbrtowc_r
 .text.__ascii_mbtowc
                0x7e049834       0x24 ../tools/GNU_Arm_Toolchain/arm-none-eabi/lib/thumb/v7/nofp/libc.a(lib_a-mbtowc_r.o)
                0x7e049834                __ascii_mbtowc
 .text.memchr   0x7e049858       0x90 ../tools/GNU_Arm_Toolchain/arm-none-eabi/lib/thumb/v7/nofp/libc.a(lib_a-memchr-stub.o)
                0x7e049858                memchr
 .text.memcmp   0x7e0498e8       0x64 ../tools/GNU_Arm_Toolchain/arm-none-eabi/lib/thumb/v7/nofp/libc.a(lib_a-memcmp.o)
                0x7e0498e8                memcmp
 .text.__malloc_lock
                0x7e04994c        0xc ../tools/GNU_Arm_Toolchain/arm-none-eabi/lib/thumb/v7/nofp/libc.a(lib_a-mlock.o)
                0x7e04994c                __malloc_lock
 .text.__malloc_unlock
                0x7e049958        0xc ../tools/GNU_Arm_Toolchain/arm-none-eabi/lib/thumb/v7/nofp/libc.a(lib_a-mlock.o)
                0x7e049958                __malloc_unlock
 .text._Balloc  0x7e049964       0x4c ../tools/GNU_Arm_Toolchain/arm-none-eabi/lib/thumb/v7/nofp/libc.a(lib_a-mprec.o)
                0x7e049964                _Balloc
 .text._Bfree   0x7e0499b0       0x14 ../tools/GNU_Arm_Toolchain/arm-none-eabi/lib/thumb/v7/nofp/libc.a(lib_a-mprec.o)
                0x7e0499b0                _Bfree
 .text.__multadd
                0x7e0499c4       0xa8 ../tools/GNU_Arm_Toolchain/arm-none-eabi/lib/thumb/v7/nofp/libc.a(lib_a-mprec.o)
                0x7e0499c4                __multadd
 .text.__s2b    0x7e049a6c       0xbc ../tools/GNU_Arm_Toolchain/arm-none-eabi/lib/thumb/v7/nofp/libc.a(lib_a-mprec.o)
                0x7e049a6c                __s2b
 .text.__hi0bits
                0x7e049b28       0x40 ../tools/GNU_Arm_Toolchain/arm-none-eabi/lib/thumb/v7/nofp/libc.a(lib_a-mprec.o)
                0x7e049b28                __hi0bits
 .text.__lo0bits
                0x7e049b68       0x54 ../tools/GNU_Arm_Toolchain/arm-none-eabi/lib/thumb/v7/nofp/libc.a(lib_a-mprec.o)
                0x7e049b68                __lo0bits
 .text.__i2b    0x7e049bbc       0x60 ../tools/GNU_Arm_Toolchain/arm-none-eabi/lib/thumb/v7/nofp/libc.a(lib_a-mprec.o)
                0x7e049bbc                __i2b
 .text.__multiply
                0x7e049c1c      0x170 ../tools/GNU_Arm_Toolchain/arm-none-eabi/lib/thumb/v7/nofp/libc.a(lib_a-mprec.o)
                0x7e049c1c                __multiply
 .text.__pow5mult
                0x7e049d8c       0xc4 ../tools/GNU_Arm_Toolchain/arm-none-eabi/lib/thumb/v7/nofp/libc.a(lib_a-mprec.o)
                0x7e049d8c                __pow5mult
 .text.__lshift
                0x7e049e50       0xec ../tools/GNU_Arm_Toolchain/arm-none-eabi/lib/thumb/v7/nofp/libc.a(lib_a-mprec.o)
                0x7e049e50                __lshift
 .text.__mcmp   0x7e049f3c       0x40 ../tools/GNU_Arm_Toolchain/arm-none-eabi/lib/thumb/v7/nofp/libc.a(lib_a-mprec.o)
                0x7e049f3c                __mcmp
 .text.__mdiff  0x7e049f7c      0x160 ../tools/GNU_Arm_Toolchain/arm-none-eabi/lib/thumb/v7/nofp/libc.a(lib_a-mprec.o)
                0x7e049f7c                __mdiff
 .text.__ulp    0x7e04a0dc       0x44 ../tools/GNU_Arm_Toolchain/arm-none-eabi/lib/thumb/v7/nofp/libc.a(lib_a-mprec.o)
                0x7e04a0dc                __ulp
 .text.__b2d    0x7e04a120       0xd8 ../tools/GNU_Arm_Toolchain/arm-none-eabi/lib/thumb/v7/nofp/libc.a(lib_a-mprec.o)
                0x7e04a120                __b2d
 .text.__d2b    0x7e04a1f8       0xc4 ../tools/GNU_Arm_Toolchain/arm-none-eabi/lib/thumb/v7/nofp/libc.a(lib_a-mprec.o)
                0x7e04a1f8                __d2b
 .text.__ratio  0x7e04a2bc       0x58 ../tools/GNU_Arm_Toolchain/arm-none-eabi/lib/thumb/v7/nofp/libc.a(lib_a-mprec.o)
                0x7e04a2bc                __ratio
 .text.__copybits
                0x7e04a314       0x5c ../tools/GNU_Arm_Toolchain/arm-none-eabi/lib/thumb/v7/nofp/libc.a(lib_a-mprec.o)
                0x7e04a314                __copybits
 .text.__any_on
                0x7e04a370       0x48 ../tools/GNU_Arm_Toolchain/arm-none-eabi/lib/thumb/v7/nofp/libc.a(lib_a-mprec.o)
                0x7e04a370                __any_on
 .text._read_r  0x7e04a3b8       0x30 ../tools/GNU_Arm_Toolchain/arm-none-eabi/lib/thumb/v7/nofp/libc.a(lib_a-readr.o)
                0x7e04a3b8                _read_r
 .text.frexp    0x7e04a3e8       0x70 ../tools/GNU_Arm_Toolchain/arm-none-eabi/lib/thumb/v7/nofp/libc.a(lib_a-s_frexp.o)
                0x7e04a3e8                frexp
 .text._sbrk_r  0x7e04a458       0x28 ../tools/GNU_Arm_Toolchain/arm-none-eabi/lib/thumb/v7/nofp/libc.a(lib_a-sbrkr.o)
                0x7e04a458                _sbrk_r
 .text.__sccl   0x7e04a480       0x98 ../tools/GNU_Arm_Toolchain/arm-none-eabi/lib/thumb/v7/nofp/libc.a(lib_a-sccl.o)
                0x7e04a480                __sccl
 .text.nanf     0x7e04a518        0x8 ../tools/GNU_Arm_Toolchain/arm-none-eabi/lib/thumb/v7/nofp/libc.a(lib_a-sf_nan.o)
                0x7e04a518                nanf
 .text.strnlen  0x7e04a520       0x24 ../tools/GNU_Arm_Toolchain/arm-none-eabi/lib/thumb/v7/nofp/libc.a(lib_a-strnlen.o)
                0x7e04a520                strnlen
 *fill*         0x7e04a544        0x4 
 .text._strtod_l
                0x7e04a548      0xefc ../tools/GNU_Arm_Toolchain/arm-none-eabi/lib/thumb/v7/nofp/libc.a(lib_a-strtod.o)
                0x7e04a548                _strtod_l
 .text._strtod_r
                0x7e04b444        0xc ../tools/GNU_Arm_Toolchain/arm-none-eabi/lib/thumb/v7/nofp/libc.a(lib_a-strtod.o)
                0x7e04b444                _strtod_r
 .text._strtoll_l.constprop.0
                0x7e04b450      0x15c ../tools/GNU_Arm_Toolchain/arm-none-eabi/lib/thumb/v7/nofp/libc.a(lib_a-strtoll.o)
 .text._strtoll_r
                0x7e04b5ac        0x4 ../tools/GNU_Arm_Toolchain/arm-none-eabi/lib/thumb/v7/nofp/libc.a(lib_a-strtoll.o)
                0x7e04b5ac                _strtoll_r
 .text._strtoul_l.constprop.0
                0x7e04b5b0      0x13c ../tools/GNU_Arm_Toolchain/arm-none-eabi/lib/thumb/v7/nofp/libc.a(lib_a-strtoul.o)
 .text._strtoul_r
                0x7e04b6ec        0x4 ../tools/GNU_Arm_Toolchain/arm-none-eabi/lib/thumb/v7/nofp/libc.a(lib_a-strtoul.o)
                0x7e04b6ec                _strtoul_r
 .text._strtoull_l.constprop.0
                0x7e04b6f0      0x188 ../tools/GNU_Arm_Toolchain/arm-none-eabi/lib/thumb/v7/nofp/libc.a(lib_a-strtoull.o)
 .text._strtoull_r
                0x7e04b878        0x4 ../tools/GNU_Arm_Toolchain/arm-none-eabi/lib/thumb/v7/nofp/libc.a(lib_a-strtoull.o)
                0x7e04b878                _strtoull_r
 .text.__ssprint_r
                0x7e04b87c      0x100 ../tools/GNU_Arm_Toolchain/arm-none-eabi/lib/thumb/v7/nofp/libc.a(lib_a-svfiprintf.o)
                0x7e04b87c                __ssprint_r
 .text._sungetc_r
                0x7e04b97c       0x80 ../tools/GNU_Arm_Toolchain/arm-none-eabi/lib/thumb/v7/nofp/libc.a(lib_a-svfiscanf.o)
                0x7e04b97c                _sungetc_r
 .text.__ssrefill_r
                0x7e04b9fc       0x3c ../tools/GNU_Arm_Toolchain/arm-none-eabi/lib/thumb/v7/nofp/libc.a(lib_a-svfiscanf.o)
                0x7e04b9fc                __ssrefill_r
 .text._sfread_r
                0x7e04ba38       0xb8 ../tools/GNU_Arm_Toolchain/arm-none-eabi/lib/thumb/v7/nofp/libc.a(lib_a-svfiscanf.o)
                0x7e04ba38                _sfread_r
 .text.__submore
                0x7e04baf0       0x78 ../tools/GNU_Arm_Toolchain/arm-none-eabi/lib/thumb/v7/nofp/libc.a(lib_a-ungetc.o)
                0x7e04baf0                __submore
 .text.__sprint_r.part.0
                0x7e04bb68       0x74 ../tools/GNU_Arm_Toolchain/arm-none-eabi/lib/thumb/v7/nofp/libc.a(lib_a-vfiprintf.o)
 .text._vfiprintf_r
                0x7e04bbdc      0xd68 ../tools/GNU_Arm_Toolchain/arm-none-eabi/lib/thumb/v7/nofp/libc.a(lib_a-vfiprintf.o)
                0x7e04bbdc                _vfiprintf_r
 .text.__sbprintf
                0x7e04c944       0x80 ../tools/GNU_Arm_Toolchain/arm-none-eabi/lib/thumb/v7/nofp/libc.a(lib_a-vfiprintf.o)
 .text.__ascii_wctomb
                0x7e04c9c4       0x1c ../tools/GNU_Arm_Toolchain/arm-none-eabi/lib/thumb/v7/nofp/libc.a(lib_a-wctomb_r.o)
                0x7e04c9c4                __ascii_wctomb
 .text.__assert_func
                0x7e04c9e0       0x44 ../tools/GNU_Arm_Toolchain/arm-none-eabi/lib/thumb/v7/nofp/libc.a(lib_a-assert.o)
                0x7e04c9e0                __assert_func
 .text._calloc_r
                0x7e04ca24       0x64 ../tools/GNU_Arm_Toolchain/arm-none-eabi/lib/thumb/v7/nofp/libc.a(lib_a-callocr.o)
                0x7e04ca24                _calloc_r
 .text._fclose_r
                0x7e04ca88       0xcc ../tools/GNU_Arm_Toolchain/arm-none-eabi/lib/thumb/v7/nofp/libc.a(lib_a-fclose.o)
                0x7e04ca88                _fclose_r
 .text.fiprintf
                0x7e04cb54       0x2c ../tools/GNU_Arm_Toolchain/arm-none-eabi/lib/thumb/v7/nofp/libc.a(lib_a-fiprintf.o)
                0x7e04cb54                fiprintf
 .text.__fputwc
                0x7e04cb80       0xb4 ../tools/GNU_Arm_Toolchain/arm-none-eabi/lib/thumb/v7/nofp/libc.a(lib_a-fputwc.o)
                0x7e04cb80                __fputwc
 .text._fputwc_r
                0x7e04cc34       0x6c ../tools/GNU_Arm_Toolchain/arm-none-eabi/lib/thumb/v7/nofp/libc.a(lib_a-fputwc.o)
                0x7e04cc34                _fputwc_r
 .text._fstat_r
                0x7e04cca0       0x2c ../tools/GNU_Arm_Toolchain/arm-none-eabi/lib/thumb/v7/nofp/libc.a(lib_a-fstatr.o)
                0x7e04cca0                _fstat_r
 .text.__sfvwrite_r
                0x7e04cccc      0x2f4 ../tools/GNU_Arm_Toolchain/arm-none-eabi/lib/thumb/v7/nofp/libc.a(lib_a-fvwrite.o)
                0x7e04cccc                __sfvwrite_r
 .text.rshift   0x7e04cfc0       0xa8 ../tools/GNU_Arm_Toolchain/arm-none-eabi/lib/thumb/v7/nofp/libc.a(lib_a-gdtoa-gethex.o)
 .text.__gethex
                0x7e04d068      0x5e4 ../tools/GNU_Arm_Toolchain/arm-none-eabi/lib/thumb/v7/nofp/libc.a(lib_a-gdtoa-gethex.o)
                0x7e04d068                __gethex
 .text.__match  0x7e04d64c       0x34 ../tools/GNU_Arm_Toolchain/arm-none-eabi/lib/thumb/v7/nofp/libc.a(lib_a-gdtoa-hexnan.o)
                0x7e04d64c                __match
 .text.__hexnan
                0x7e04d680      0x1d0 ../tools/GNU_Arm_Toolchain/arm-none-eabi/lib/thumb/v7/nofp/libc.a(lib_a-gdtoa-hexnan.o)
                0x7e04d680                __hexnan
 .text._isatty_r
                0x7e04d850       0x28 ../tools/GNU_Arm_Toolchain/arm-none-eabi/lib/thumb/v7/nofp/libc.a(lib_a-isattyr.o)
                0x7e04d850                _isatty_r
 .text.memmove  0x7e04d878       0xf8 ../tools/GNU_Arm_Toolchain/arm-none-eabi/lib/thumb/v7/nofp/libc.a(lib_a-memmove.o)
                0x7e04d878                memmove
 .text._realloc_r
                0x7e04d970      0x40c ../tools/GNU_Arm_Toolchain/arm-none-eabi/lib/thumb/v7/nofp/libc.a(lib_a-reallocr.o)
                0x7e04d970                _realloc_r
 .text.nan      0x7e04dd7c        0xc ../tools/GNU_Arm_Toolchain/arm-none-eabi/lib/thumb/v7/nofp/libc.a(lib_a-s_nan.o)
                0x7e04dd7c                nan
 .text.__swbuf_r
                0x7e04dd88       0xb0 ../tools/GNU_Arm_Toolchain/arm-none-eabi/lib/thumb/v7/nofp/libc.a(lib_a-wbuf.o)
                0x7e04dd88                __swbuf_r
 .text._wcrtomb_r
                0x7e04de38       0x3c ../tools/GNU_Arm_Toolchain/arm-none-eabi/lib/thumb/v7/nofp/libc.a(lib_a-wcrtomb.o)
                0x7e04de38                _wcrtomb_r
 .text.abort    0x7e04de74       0x10 ../tools/GNU_Arm_Toolchain/arm-none-eabi/lib/thumb/v7/nofp/libc.a(lib_a-abort.o)
                0x7e04de74                abort
 .text.raise    0x7e04de84       0x5c ../tools/GNU_Arm_Toolchain/arm-none-eabi/lib/thumb/v7/nofp/libc.a(lib_a-signal.o)
                0x7e04de84                raise
 .text._kill_r  0x7e04dee0       0x2c ../tools/GNU_Arm_Toolchain/arm-none-eabi/lib/thumb/v7/nofp/libc.a(lib_a-signalr.o)
                0x7e04dee0                _kill_r
 .text._getpid_r
                0x7e04df0c        0x4 ../tools/GNU_Arm_Toolchain/arm-none-eabi/lib/thumb/v7/nofp/libc.a(lib_a-signalr.o)
                0x7e04df0c                _getpid_r
 .text._close   0x7e04df10       0x14 ../tools/GNU_Arm_Toolchain/arm-none-eabi/lib/thumb/v7/nofp/libnosys.a(close.o)
                0x7e04df10                _close
 .text._fstat   0x7e04df24       0x14 ../tools/GNU_Arm_Toolchain/arm-none-eabi/lib/thumb/v7/nofp/libnosys.a(fstat.o)
                0x7e04df24                _fstat
 .text._getpid  0x7e04df38       0x14 ../tools/GNU_Arm_Toolchain/arm-none-eabi/lib/thumb/v7/nofp/libnosys.a(getpid.o)
                0x7e04df38                _getpid
 .text._isatty  0x7e04df4c       0x10 ../tools/GNU_Arm_Toolchain/arm-none-eabi/lib/thumb/v7/nofp/libnosys.a(isatty.o)
                0x7e04df4c                _isatty
 .text._kill    0x7e04df5c       0x14 ../tools/GNU_Arm_Toolchain/arm-none-eabi/lib/thumb/v7/nofp/libnosys.a(kill.o)
                0x7e04df5c                _kill
 .text._lseek   0x7e04df70       0x14 ../tools/GNU_Arm_Toolchain/arm-none-eabi/lib/thumb/v7/nofp/libnosys.a(lseek.o)
                0x7e04df70                _lseek
 .text._read    0x7e04df84       0x14 ../tools/GNU_Arm_Toolchain/arm-none-eabi/lib/thumb/v7/nofp/libnosys.a(read.o)
                0x7e04df84                _read
 .text._sbrk    0x7e04df98       0x20 ../tools/GNU_Arm_Toolchain/arm-none-eabi/lib/thumb/v7/nofp/libnosys.a(sbrk.o)
                0x7e04df98                _sbrk
 .text._write   0x7e04dfb8       0x14 ../tools/GNU_Arm_Toolchain/arm-none-eabi/lib/thumb/v7/nofp/libnosys.a(write.o)
                0x7e04dfb8                _write
 .text._exit    0x7e04dfcc        0x4 ../tools/GNU_Arm_Toolchain/arm-none-eabi/lib/thumb/v7/nofp/libnosys.a(_exit.o)
                0x7e04dfcc                _exit
 .text          0x7e04dfd0      0x278 ../tools/GNU_Arm_Toolchain/lib/gcc/arm-none-eabi/10.3.1/thumb/v7/nofp/libgcc.a(_udivsi3.o)
                0x7e04dfd0                __aeabi_uidiv
                0x7e04dfd0                __udivsi3
                0x7e04e22c                __aeabi_uidivmod
 .text          0x7e04e248      0x2b0 ../tools/GNU_Arm_Toolchain/lib/gcc/arm-none-eabi/10.3.1/thumb/v7/nofp/libgcc.a(_divsi3.o)
                0x7e04e248                __divsi3
                0x7e04e248                __aeabi_idiv
                0x7e04e4dc                __aeabi_idivmod
 .text          0x7e04e4f8        0x4 ../tools/GNU_Arm_Toolchain/lib/gcc/arm-none-eabi/10.3.1/thumb/v7/nofp/libgcc.a(_dvmd_tls.o)
                0x7e04e4f8                __aeabi_idiv0
                0x7e04e4f8                __aeabi_ldiv0
 .text          0x7e04e4fc      0x378 ../tools/GNU_Arm_Toolchain/lib/gcc/arm-none-eabi/10.3.1/thumb/v7/nofp/libgcc.a(_arm_addsubdf3.o)
                0x7e04e4fc                __aeabi_drsub
                0x7e04e504                __aeabi_dsub
                0x7e04e504                __subdf3
                0x7e04e508                __aeabi_dadd
                0x7e04e508                __adddf3
                0x7e04e780                __floatunsidf
                0x7e04e780                __aeabi_ui2d
                0x7e04e7a0                __floatsidf
                0x7e04e7a0                __aeabi_i2d
                0x7e04e7c4                __aeabi_f2d
                0x7e04e7c4                __extendsfdf2
                0x7e04e808                __floatundidf
                0x7e04e808                __aeabi_ul2d
                0x7e04e818                __floatdidf
                0x7e04e818                __aeabi_l2d
 .text          0x7e04e874      0x424 ../tools/GNU_Arm_Toolchain/lib/gcc/arm-none-eabi/10.3.1/thumb/v7/nofp/libgcc.a(_arm_muldivdf3.o)
                0x7e04e874                __aeabi_dmul
                0x7e04e874                __muldf3
                0x7e04eac8                __divdf3
                0x7e04eac8                __aeabi_ddiv
 .text          0x7e04ec98      0x110 ../tools/GNU_Arm_Toolchain/lib/gcc/arm-none-eabi/10.3.1/thumb/v7/nofp/libgcc.a(_arm_cmpdf2.o)
                0x7e04ec98                __gtdf2
                0x7e04ec98                __gedf2
                0x7e04eca0                __ltdf2
                0x7e04eca0                __ledf2
                0x7e04eca8                __nedf2
                0x7e04eca8                __eqdf2
                0x7e04eca8                __cmpdf2
                0x7e04ed24                __aeabi_cdrcmple
                0x7e04ed34                __aeabi_cdcmpeq
                0x7e04ed34                __aeabi_cdcmple
                0x7e04ed44                __aeabi_dcmpeq
                0x7e04ed58                __aeabi_dcmplt
                0x7e04ed6c                __aeabi_dcmple
                0x7e04ed80                __aeabi_dcmpge
                0x7e04ed94                __aeabi_dcmpgt
 .text          0x7e04eda8       0x2c ../tools/GNU_Arm_Toolchain/lib/gcc/arm-none-eabi/10.3.1/thumb/v7/nofp/libgcc.a(_arm_unorddf2.o)
                0x7e04eda8                __unorddf2
                0x7e04eda8                __aeabi_dcmpun
 .text          0x7e04edd4       0x50 ../tools/GNU_Arm_Toolchain/lib/gcc/arm-none-eabi/10.3.1/thumb/v7/nofp/libgcc.a(_arm_fixdfsi.o)
                0x7e04edd4                __aeabi_d2iz
                0x7e04edd4                __fixdfsi
 .text          0x7e04ee24       0x40 ../tools/GNU_Arm_Toolchain/lib/gcc/arm-none-eabi/10.3.1/thumb/v7/nofp/libgcc.a(_arm_fixunsdfsi.o)
                0x7e04ee24                __aeabi_d2uiz
                0x7e04ee24                __fixunsdfsi
 .text          0x7e04ee64       0xa0 ../tools/GNU_Arm_Toolchain/lib/gcc/arm-none-eabi/10.3.1/thumb/v7/nofp/libgcc.a(_arm_truncdfsf2.o)
                0x7e04ee64                __truncdfsf2
                0x7e04ee64                __aeabi_d2f
 .text          0x7e04ef04      0x21c ../tools/GNU_Arm_Toolchain/lib/gcc/arm-none-eabi/10.3.1/thumb/v7/nofp/libgcc.a(_arm_addsubsf3.o)
                0x7e04ef04                __aeabi_frsub
                0x7e04ef0c                __subsf3
                0x7e04ef0c                __aeabi_fsub
                0x7e04ef10                __aeabi_fadd
                0x7e04ef10                __addsf3
                0x7e04f070                __aeabi_ui2f
                0x7e04f070                __floatunsisf
                0x7e04f078                __aeabi_i2f
                0x7e04f078                __floatsisf
                0x7e04f094                __aeabi_ul2f
                0x7e04f094                __floatundisf
                0x7e04f0a4                __aeabi_l2f
                0x7e04f0a4                __floatdisf
 .text          0x7e04f120       0xec ../tools/GNU_Arm_Toolchain/lib/gcc/arm-none-eabi/10.3.1/thumb/v7/nofp/libgcc.a(_arm_cmpsf2.o)
                0x7e04f120                __gesf2
                0x7e04f120                __gtsf2
                0x7e04f128                __lesf2
                0x7e04f128                __ltsf2
                0x7e04f130                __nesf2
                0x7e04f130                __eqsf2
                0x7e04f130                __cmpsf2
                0x7e04f190                __aeabi_cfrcmple
                0x7e04f198                __aeabi_cfcmpeq
                0x7e04f198                __aeabi_cfcmple
                0x7e04f1a8                __aeabi_fcmpeq
                0x7e04f1bc                __aeabi_fcmplt
                0x7e04f1d0                __aeabi_fcmple
                0x7e04f1e4                __aeabi_fcmpge
                0x7e04f1f8                __aeabi_fcmpgt
 .text          0x7e04f20c       0x30 ../tools/GNU_Arm_Toolchain/lib/gcc/arm-none-eabi/10.3.1/thumb/v7/nofp/libgcc.a(_aeabi_uldivmod.o)
                0x7e04f20c                __aeabi_uldivmod
 .text          0x7e04f23c       0x34 ../tools/GNU_Arm_Toolchain/lib/gcc/arm-none-eabi/10.3.1/thumb/v7/nofp/libgcc.a(_fixdfdi.o)
                0x7e04f23c                __fixdfdi
                0x7e04f23c                __aeabi_d2lz
 .text          0x7e04f270       0x3c ../tools/GNU_Arm_Toolchain/lib/gcc/arm-none-eabi/10.3.1/thumb/v7/nofp/libgcc.a(_fixunsdfdi.o)
                0x7e04f270                __fixunsdfdi
                0x7e04f270                __aeabi_d2ulz
 .text          0x7e04f2ac      0x108 ../tools/GNU_Arm_Toolchain/lib/gcc/arm-none-eabi/10.3.1/thumb/v7/nofp/libgcc.a(_udivmoddi4.o)
                0x7e04f2ac                __udivmoddi4

.glue_7         0x7e04f3b4        0x0
 .glue_7        0x7e04f3b4        0x0 linker stubs

.glue_7t        0x7e04f3b4        0x0
 .glue_7t       0x7e04f3b4        0x0 linker stubs

.vfp11_veneer   0x7e04f3b4        0x0
 .vfp11_veneer  0x7e04f3b4        0x0 linker stubs

.v4_bx          0x7e04f3b4        0x0
 .v4_bx         0x7e04f3b4        0x0 linker stubs

.iplt           0x7e04f3b4        0x0
 .iplt          0x7e04f3b4        0x0 CMakeFiles/nwy_open_app.dir/nwy_test_demo/nwy_test_cli/comm/nwy_test_cli_utils.obj

i.nwy_open_app_env_init
                0x7e04f3b4       0x1c
 i.nwy_open_app_env_init
                0x7e04f3b4       0x1c ../build/nwy_open_stub.a(nwy_open_stub.o)

i.nwy_strncmp   0x7e04f3d0       0x2c
 i.nwy_strncmp  0x7e04f3d0       0x2c ../build/nwy_open_stub.a(nwy_open_stub.o)

i.nwy_open_app_sdk_load
                0x7e04f3fc       0x7c
 i.nwy_open_app_sdk_load
                0x7e04f3fc       0x7c ../build/nwy_open_stub.a(nwy_open_stub.o)

i.__nwy_open_app_entry
                0x7e04f478       0x1e
 i.__nwy_open_app_entry
                0x7e04f478       0x1e ../build/nwy_open_stub.a(nwy_open_stub.o)

.rodata         0x7e04f498     0x19bc
 *(.rodata*)
 .rodata.nwy_test_cli_dbg.str1.1
                0x7e04f498       0x10 CMakeFiles/nwy_open_app.dir/nwy_test_demo/nwy_test_cli/comm/nwy_test_cli_adpt.obj
 .rodata.nwy_open_app_entry.str1.1
                0x7e04f4a8       0xc0 CMakeFiles/nwy_open_app.dir/nwy_test_demo/nwy_test_cli/comm/nwy_test_cli_adpt.obj
 .rodata.APP_VERSION
                0x7e04f568       0x41 CMakeFiles/nwy_open_app.dir/nwy_test_demo/nwy_test_cli/comm/nwy_test_cli_adpt.obj
 .rodata.__func__.2
                0x7e04f5a9       0x13 CMakeFiles/nwy_open_app.dir/nwy_test_demo/nwy_test_cli/comm/nwy_test_cli_adpt.obj
 .rodata.Get_Default_Config.str1.1
                0x7e04f5bc       0x67 CMakeFiles/nwy_open_app.dir/nwy_test_demo/odt_vts_application/Peripheral_Driver/driver.obj
 .rodata.odt_vts_dbgPrintf.str1.1
                0x7e04f623       0x20 CMakeFiles/nwy_open_app.dir/nwy_test_demo/odt_vts_application/Peripheral_Driver/driver.obj
                                 0x23 (size before relaxing)
 .rodata.Init_Debug_UART.str1.1
                0x7e04f643       0x34 CMakeFiles/nwy_open_app.dir/nwy_test_demo/odt_vts_application/Peripheral_Driver/driver.obj
 .rodata.Init_Usr_Timer.str1.1
                0x7e04f677       0x39 CMakeFiles/nwy_open_app.dir/nwy_test_demo/odt_vts_application/Peripheral_Driver/driver.obj
 .rodata.str1.1
                0x7e04f6b0        0xf CMakeFiles/nwy_open_app.dir/nwy_test_demo/odt_vts_application/Peripheral_Driver/driver.obj
 .rodata.nwy_sms_test_recv_cb.str1.1
                0x7e04f6bf       0xbd CMakeFiles/nwy_open_app.dir/nwy_test_demo/odt_vts_application/Peripheral_Driver/drv_callback.obj
 .rodata.Set_profile.str1.1
                0x7e04f77c       0x64 CMakeFiles/nwy_open_app.dir/nwy_test_demo/odt_vts_application/NET_Application/Network.obj
 .rodata.GET_SIM_Status.str1.1
                0x7e04f7e0       0x44 CMakeFiles/nwy_open_app.dir/nwy_test_demo/odt_vts_application/NET_Application/Network.obj
 .rodata.Set_Network_Reg.str1.1
                0x7e04f824       0x72 CMakeFiles/nwy_open_app.dir/nwy_test_demo/odt_vts_application/NET_Application/Network.obj
 .rodata.Network_Polling.str1.1
                0x7e04f896      0x152 CMakeFiles/nwy_open_app.dir/nwy_test_demo/odt_vts_application/NET_Application/Network.obj
 .rodata.Get_Location.str1.1
                0x7e04f9e8       0x1e CMakeFiles/nwy_open_app.dir/nwy_test_demo/odt_vts_application/VTS_Application/VTS_App.obj
 .rodata.Prepare_http_frame.str1.1
                0x7e04fa06      0x212 CMakeFiles/nwy_open_app.dir/nwy_test_demo/odt_vts_application/VTS_Application/VTS_App.obj
 .rodata.VTS_App_Polling.str1.1
                0x7e04fc18       0xc6 CMakeFiles/nwy_open_app.dir/nwy_test_demo/odt_vts_application/VTS_Application/VTS_App.obj
 .rodata.HTTP_Setup.str1.1
                0x7e04fcde       0x47 CMakeFiles/nwy_open_app.dir/nwy_test_demo/odt_vts_application/HTTP_Server/http.obj
 .rodata.HTTP_Event_CallBack.str1.1
                0x7e04fd25      0x185 CMakeFiles/nwy_open_app.dir/nwy_test_demo/odt_vts_application/HTTP_Server/http.obj
 .rodata.nwy_cli_ftp_fota_result_cb.str1.1
                0x7e04feaa      0x343 CMakeFiles/nwy_open_app.dir/nwy_test_demo/odt_vts_application/OTA/ota.obj
 .rodata.Ota_init.str1.1
                0x7e0501ed       0xb4 CMakeFiles/nwy_open_app.dir/nwy_test_demo/odt_vts_application/OTA/ota.obj
 .rodata.Init_SMS.str1.1
                0x7e0502a1       0x31 CMakeFiles/nwy_open_app.dir/nwy_test_demo/odt_vts_application/SMS/sms.obj
 .rodata.SMS_Recv_Handler.str1.1
                0x7e0502d2      0x2c2 CMakeFiles/nwy_open_app.dir/nwy_test_demo/odt_vts_application/SMS/sms.obj
                                0x2d4 (size before relaxing)
 .rodata.Read_SMS.str1.1
                0x7e050594       0x6b CMakeFiles/nwy_open_app.dir/nwy_test_demo/odt_vts_application/SMS/sms.obj
 .rodata.str1.1
                0x7e0505ff       0x87 CMakeFiles/nwy_open_app.dir/nwy_test_demo/odt_vts_application/SMS/sms.obj
 .rodata.Check_VTSflash.str1.1
                0x7e050686        0x9 CMakeFiles/nwy_open_app.dir/nwy_test_demo/odt_vts_application/Flash/flash.obj
                                  0xb (size before relaxing)
 .rodata.Make_VTSflash_Dir.str1.1
                0x7e05068f       0x28 CMakeFiles/nwy_open_app.dir/nwy_test_demo/odt_vts_application/Flash/flash.obj
 .rodata.Read_from_file.str1.1
                0x7e0506b7       0xe3 CMakeFiles/nwy_open_app.dir/nwy_test_demo/odt_vts_application/Flash/flash.obj
 .rodata.Write_to_File.str1.1
                0x7e05079a       0x66 CMakeFiles/nwy_open_app.dir/nwy_test_demo/odt_vts_application/Flash/flash.obj
 .rodata.Flash_Write.str1.1
                0x7e050800       0x32 CMakeFiles/nwy_open_app.dir/nwy_test_demo/odt_vts_application/Flash/flash.obj
 *fill*         0x7e050832        0x2 
 .rodata._svfprintf_r.str1.4
                0x7e050834       0x42 ../tools/GNU_Arm_Toolchain/arm-none-eabi/lib/thumb/v7/nofp/libc.a(lib_a-svfprintf.o)
 *fill*         0x7e050876        0x2 
 .rodata.blanks.1
                0x7e050878       0x10 ../tools/GNU_Arm_Toolchain/arm-none-eabi/lib/thumb/v7/nofp/libc.a(lib_a-svfprintf.o)
 .rodata.zeroes.0
                0x7e050888       0x10 ../tools/GNU_Arm_Toolchain/arm-none-eabi/lib/thumb/v7/nofp/libc.a(lib_a-svfprintf.o)
 .rodata.__ssvfscanf_r.str1.4
                0x7e050898        0x5 ../tools/GNU_Arm_Toolchain/arm-none-eabi/lib/thumb/v7/nofp/libc.a(lib_a-svfscanf.o)
                                  0x9 (size before relaxing)
 *fill*         0x7e05089d        0x3 
 .rodata.basefix.0
                0x7e0508a0       0x22 ../tools/GNU_Arm_Toolchain/arm-none-eabi/lib/thumb/v7/nofp/libc.a(lib_a-svfscanf.o)
 *fill*         0x7e0508c2        0x2 
 .rodata._ctype_
                0x7e0508c4      0x101 ../tools/GNU_Arm_Toolchain/arm-none-eabi/lib/thumb/v7/nofp/libc.a(lib_a-ctype_.o)
                0x7e0508c4                _ctype_
 *fill*         0x7e0509c5        0x3 
 .rodata._dtoa_r.str1.4
                0x7e0509c8       0xa1 ../tools/GNU_Arm_Toolchain/arm-none-eabi/lib/thumb/v7/nofp/libc.a(lib_a-dtoa.o)
                                 0xa5 (size before relaxing)
 *fill*         0x7e050a69        0x3 
 .rodata._setlocale_r.str1.4
                0x7e050a6c        0xa ../tools/GNU_Arm_Toolchain/arm-none-eabi/lib/thumb/v7/nofp/libc.a(lib_a-locale.o)
                                  0xd (size before relaxing)
 *fill*         0x7e050a76        0x2 
 .rodata.str1.4
                0x7e050a78        0x2 ../tools/GNU_Arm_Toolchain/arm-none-eabi/lib/thumb/v7/nofp/libc.a(lib_a-locale.o)
 .rodata._mbrtowc_r.str1.4
                0x7e050a7a        0x1 ../tools/GNU_Arm_Toolchain/arm-none-eabi/lib/thumb/v7/nofp/libc.a(lib_a-mbrtowc.o)
 *fill*         0x7e050a7a        0x2 
 .rodata.__multadd.str1.4
                0x7e050a7c       0x7e ../tools/GNU_Arm_Toolchain/arm-none-eabi/lib/thumb/v7/nofp/libc.a(lib_a-mprec.o)
                                 0x92 (size before relaxing)
 *fill*         0x7e050afa        0x6 
 .rodata.__mprec_bigtens
                0x7e050b00       0x28 ../tools/GNU_Arm_Toolchain/arm-none-eabi/lib/thumb/v7/nofp/libc.a(lib_a-mprec.o)
                0x7e050b00                __mprec_bigtens
 .rodata.__mprec_tens
                0x7e050b28       0xc8 ../tools/GNU_Arm_Toolchain/arm-none-eabi/lib/thumb/v7/nofp/libc.a(lib_a-mprec.o)
                0x7e050b28                __mprec_tens
 .rodata.p05.0  0x7e050bf0        0xc ../tools/GNU_Arm_Toolchain/arm-none-eabi/lib/thumb/v7/nofp/libc.a(lib_a-mprec.o)
 .rodata._strtod_l.str1.4
                0x7e050bfc        0xf ../tools/GNU_Arm_Toolchain/arm-none-eabi/lib/thumb/v7/nofp/libc.a(lib_a-strtod.o)
                                 0x11 (size before relaxing)
 *fill*         0x7e050c0b        0x1 
 .rodata.fpi.1  0x7e050c0c       0x14 ../tools/GNU_Arm_Toolchain/arm-none-eabi/lib/thumb/v7/nofp/libc.a(lib_a-strtod.o)
 .rodata.fpinan.0
                0x7e050c20       0x14 ../tools/GNU_Arm_Toolchain/arm-none-eabi/lib/thumb/v7/nofp/libc.a(lib_a-strtod.o)
 *fill*         0x7e050c34        0x4 
 .rodata.tinytens
                0x7e050c38       0x28 ../tools/GNU_Arm_Toolchain/arm-none-eabi/lib/thumb/v7/nofp/libc.a(lib_a-strtod.o)
 .rodata._vfiprintf_r.str1.4
                0x7e050c60       0x2f ../tools/GNU_Arm_Toolchain/arm-none-eabi/lib/thumb/v7/nofp/libc.a(lib_a-vfiprintf.o)
 .rodata.blanks.1
                0x7e050c60       0x10 ../tools/GNU_Arm_Toolchain/arm-none-eabi/lib/thumb/v7/nofp/libc.a(lib_a-vfiprintf.o)
 .rodata.zeroes.0
                0x7e050c70       0x10 ../tools/GNU_Arm_Toolchain/arm-none-eabi/lib/thumb/v7/nofp/libc.a(lib_a-vfiprintf.o)
 .rodata.__assert_func.str1.4
                0x7e050c80       0x3f ../tools/GNU_Arm_Toolchain/arm-none-eabi/lib/thumb/v7/nofp/libc.a(lib_a-assert.o)
                                 0x43 (size before relaxing)
 *fill*         0x7e050cbf        0x1 
 .rodata.__gethex.str1.4
                0x7e050cc0       0x85 ../tools/GNU_Arm_Toolchain/arm-none-eabi/lib/thumb/v7/nofp/libc.a(lib_a-gdtoa-gethex.o)
                                 0x99 (size before relaxing)
 *fill*         0x7e050d45        0x3 
 .rodata.__hexdig
                0x7e050d48      0x100 ../tools/GNU_Arm_Toolchain/arm-none-eabi/lib/thumb/v7/nofp/libc.a(lib_a-gdtoa-gethex.o)
                0x7e050d48                __hexdig
 .rodata.str1.4
                0x7e050e48        0x5 ../tools/GNU_Arm_Toolchain/arm-none-eabi/lib/thumb/v7/nofp/libc.a(lib_a-lnumeric.o)
 .rodata._C_numeric_locale
                0x7e050e48        0xc ../tools/GNU_Arm_Toolchain/arm-none-eabi/lib/thumb/v7/nofp/libc.a(lib_a-lnumeric.o)
                0x7e050e48                _C_numeric_locale

.conststrlit    0x7e050e54     0x1de3
 .conststrlit   0x7e050e54     0x1de3 ../build/nwy_open_stub.a(nwy_open_stub.o)

.ARM.exidx      0x7e052c38        0x8
 .ARM.exidx     0x7e052c38        0x8 ../tools/GNU_Arm_Toolchain/lib/gcc/arm-none-eabi/10.3.1/thumb/v7/nofp/libgcc.a(_udivmoddi4.o)

.rel.dyn        0x7e052c40        0x0
 .rel.iplt      0x7e052c40        0x0 CMakeFiles/nwy_open_app.dir/nwy_test_demo/nwy_test_cli/comm/nwy_test_cli_utils.obj

nwy_open_api_import
                0x7e052c40      0xc18
                0x7e052c40                PROVIDE (nwy_open_api_import$$Base = .)
 *(nwy_open_api_import)
 nwy_open_api_import
                0x7e052c40      0xc18 ../build/nwy_open_stub.a(nwy_open_stub.o)
                [!provide]                PROVIDE (nwy_open_api_import$$End = .)
                0x00000c18                nwy_open_api_import$$Length = SIZEOF (nwy_open_api_import)

.data           0x7e053858      0xfe6
 *(.data*)
 .data.UART_list
                0x7e053858        0xc CMakeFiles/nwy_open_app.dir/nwy_test_demo/odt_vts_application/Peripheral_Driver/driver.obj
                0x7e053858                UART_list
 .data.Sms_Cmd_list
                0x7e053864       0x24 CMakeFiles/nwy_open_app.dir/nwy_test_demo/odt_vts_application/SMS/sms.obj
                0x7e053864                Sms_Cmd_list
 .data          0x7e053888      0x60c ../build/nwy_open_stub.a(nwy_open_stub.o)
                0x7e053888                nwy_sdk_log_printf_ptr
                0x7e05388c                nwy_thread_create_ptr
                0x7e053890                nwy_thread_get_current_ptr
                0x7e053894                nwy_thread_set_priority_ptr
                0x7e053898                nwy_thread_get_priority_ptr
                0x7e05389c                nwy_thread_suspend_ptr
                0x7e0538a0                nwy_thread_resume_ptr
                0x7e0538a4                nwy_thread_exit_ptr
                0x7e0538a8                nwy_thread_sleep_ptr
                0x7e0538ac                nwy_thread_usleep_ptr
                0x7e0538b0                nwy_thread_event_send_ptr
                0x7e0538b4                nwy_thread_event_front_send_ptr
                0x7e0538b8                nwy_thread_event_wait_ptr
                0x7e0538bc                nwy_thread_pendingevt_num_get_ptr
                0x7e0538c0                nwy_thread_spaceevt_cnt_get_ptr
                0x7e0538c4                nwy_thread_info_get_ptr
                0x7e0538c8                nwy_thread_list_get_ptr
                0x7e0538cc                nwy_thread_runtime_stats_get_ptr
                0x7e0538d0                nwy_msg_queue_create_ptr
                0x7e0538d4                nwy_msg_queue_delete_ptr
                0x7e0538d8                nwy_msg_queue_send_ptr
                0x7e0538dc                nwy_msg_queue_front_send_ptr
                0x7e0538e0                nwy_msg_queue_recv_ptr
                0x7e0538e4                nwy_msg_queue_pending_num_get_ptr
                0x7e0538e8                nwy_msg_queue_space_num_get_ptr
                0x7e0538ec                nwy_sdk_mutex_create_ptr
                0x7e0538f0                nwy_sdk_mutex_lock_ptr
                0x7e0538f4                nwy_sdk_mutex_unlock_ptr
                0x7e0538f8                nwy_sdk_mutex_delete_ptr
                0x7e0538fc                nwy_semaphore_create_ptr
                0x7e053900                nwy_semaphore_acquire_ptr
                0x7e053904                nwy_semahpore_release_ptr
                0x7e053908                nwy_semahpore_delete_ptr
                0x7e05390c                nwy_semahpore_count_get_ptr
                0x7e053910                nwy_sdk_timer_create_ptr
                0x7e053914                nwy_sdk_timer_destory_ptr
                0x7e053918                nwy_sdk_timer_start_ptr
                0x7e05391c                nwy_sdk_timer_status_get_ptr
                0x7e053920                nwy_sdk_timer_stop_ptr
                0x7e053924                nwy_uptime_get_ptr
                0x7e053928                nwy_date_set_ptr
                0x7e05392c                nwy_date_get_ptr
                0x7e053930                nwy_sys_timestamp_set_ptr
                0x7e053934                nwy_sys_timestamp_get_ptr
                0x7e053938                nwy_sys_timezone_set_ptr
                0x7e05393c                nwy_timestamp_to_date_ptr
                0x7e053940                nwy_date_to_timestamp_ptr
                0x7e053944                nwy_socket_errno_ptr
                0x7e053948                nwy_socket_open_ptr
                0x7e05394c                nwy_socket_send_ptr
                0x7e053950                nwy_socket_recv_ptr
                0x7e053954                nwy_socket_sendto_ptr
                0x7e053958                nwy_socket_recvfrom_ptr
                0x7e05395c                nwy_socket_setsockopt_ptr
                0x7e053960                nwy_socket_getsockopt_ptr
                0x7e053964                nwy_socket_gethost_by_name_ptr
                0x7e053968                nwy_socket_close_ptr
                0x7e05396c                nwy_socket_shutdown_ptr
                0x7e053970                nwy_socket_connect_ptr
                0x7e053974                nwy_socket_lport_bind_ptr
                0x7e053978                nwy_socket_bind_ptr
                0x7e05397c                nwy_socket_listen_ptr
                0x7e053980                nwy_socket_accept_ptr
                0x7e053984                nwy_socket_get_state_ptr
                0x7e053988                nwy_socket_select_ptr
                0x7e05398c                nwy_socket_set_nonblock_ptr
                0x7e053990                nwy_socket_set_reuseaddr_ptr
                0x7e053994                nwy_socket_set_nodelay_ptr
                0x7e053998                nwy_socket_set_keepalive_ptr
                0x7e05399c                nwy_socket_set_linger_ptr
                0x7e0539a0                nwy_socket_get_ack_ptr
                0x7e0539a4                nwy_socket_get_sent_ptr
                0x7e0539a8                nwy_socket_inet_ntop_ptr
                0x7e0539ac                nwy_socket_inet_pton_ptr
                0x7e0539b0                nwy_socket_htons_ptr
                0x7e0539b4                nwy_socket_ntohs_ptr
                0x7e0539b8                nwy_socket_htonl_ptr
                0x7e0539bc                nwy_socket_ntohl_ptr
                0x7e0539c0                nwy_usb_serial_send_ptr
                0x7e0539c4                nwy_usb_serial_reg_recv_cb_ptr
                0x7e0539c8                malloc_ptr
                0x7e0539cc                calloc_ptr
                0x7e0539d0                realloc_ptr
                0x7e0539d4                free_ptr
                0x7e0539d8                nwy_file_open_ptr
                0x7e0539dc                nwy_file_read_ptr
                0x7e0539e0                nwy_file_write_ptr
                0x7e0539e4                nwy_file_tell_ptr
                0x7e0539e8                nwy_file_seek_ptr
                0x7e0539ec                nwy_file_path_size_ptr
                0x7e0539f0                nwy_file_fd_size_ptr
                0x7e0539f4                nwy_file_exist_ptr
                0x7e0539f8                nwy_file_remove_ptr
                0x7e0539fc                nwy_file_rename_ptr
                0x7e053a00                nwy_file_sync_ptr
                0x7e053a04                nwy_file_fd_trunc_ptr
                0x7e053a08                nwy_file_path_trunc_ptr
                0x7e053a0c                nwy_file_path_stat_get_ptr
                0x7e053a10                nwy_file_fd_stat_get_ptr
                0x7e053a14                nwy_file_close_ptr
                0x7e053a18                nwy_dir_mk_ptr
                0x7e053a1c                nwy_dir_rm_ptr
                0x7e053a20                nwy_dir_recursive_rm_ptr
                0x7e053a24                nwy_dir_open_ptr
                0x7e053a28                nwy_dir_close_ptr
                0x7e053a2c                nwy_dir_read_ptr
                0x7e053a30                nwy_dir_tell_ptr
                0x7e053a34                nwy_dir_seek_ptr
                0x7e053a38                nwy_dir_rewind_ptr
                0x7e053a3c                nwy_vfs_free_size_get_ptr
                0x7e053a40                nwy_dm_dev_model_get_ptr
                0x7e053a44                nwy_dm_inner_version_get_ptr
                0x7e053a48                nwy_dm_open_sdk_version_get_ptr
                0x7e053a4c                nwy_dm_hw_version_get_ptr
                0x7e053a50                nwy_dm_rftemperature_get_ptr
                0x7e053a54                nwy_dm_sn_get_ptr
                0x7e053a58                nwy_dm_imei_get_ptr
                0x7e053a5c                nwy_dm_app_version_set_ptr
                0x7e053a60                nwy_dm_imei_set_ptr
                0x7e053a64                nwy_dm_heapinfo_ptr
                0x7e053a68                nwy_dm_nvinfo_get_ptr
                0x7e053a6c                nwy_ftp_login_ptr
                0x7e053a70                nwy_ftp_logout_ptr
                0x7e053a74                nwy_ftp_get_ptr
                0x7e053a78                nwy_ftp_put_ptr
                0x7e053a7c                nwy_ftp_get_filesize_ptr
                0x7e053a80                nwy_ftp_del_file_ptr
                0x7e053a84                nwy_http_setup_ptr
                0x7e053a88                nwy_http_get_ptr
                0x7e053a8c                nwy_http_head_ptr
                0x7e053a90                nwy_http_post_ptr
                0x7e053a94                nwy_http_put_ptr
                0x7e053a98                nwy_http_open_mode_ptr
                0x7e053a9c                nwy_http_close_ptr
                0x7e053aa0                nwy_sntp_get_time_ptr
                0x7e053aa4                nwy_sim_imsi_get_ptr
                0x7e053aa8                nwy_sim_iccid_get_ptr
                0x7e053aac                nwy_sim_status_get_ptr
                0x7e053ab0                nwy_sim_pin_verify_ptr
                0x7e053ab4                nwy_sim_pin_unlock_ptr
                0x7e053ab8                nwy_sim_pin_mode_get_ptr
                0x7e053abc                nwy_sim_pin_enable_ptr
                0x7e053ac0                nwy_sim_pin_disable_ptr
                0x7e053ac4                nwy_sim_pin_change_ptr
                0x7e053ac8                nwy_sim_pin_times_get_ptr
                0x7e053acc                nwy_sim_msisdn_get_ptr
                0x7e053ad0                nwy_sim_slot_set_ptr
                0x7e053ad4                nwy_sim_slot_get_ptr
                0x7e053ad8                nwy_sim_reset_ptr
                0x7e053adc                nwy_sim_power_set_ptr
                0x7e053ae0                nwy_sim_detect_set_ptr
                0x7e053ae4                nwy_sim_csim_ptr
                0x7e053ae8                nwy_sim_urc_reg_ptr
                0x7e053aec                nwy_sim_urc_unreg_ptr
                0x7e053af0                nwy_pm_ctrl_ptr
                0x7e053af4                nwy_pm_state_set_ptr
                0x7e053af8                nwy_bootup_alarm_set_ptr
                0x7e053afc                nwy_bootup_alarm_del_ptr
                0x7e053b00                nwy_power_state_ptr
                0x7e053b04                nwy_pm_boot_res_ptr
                0x7e053b08                nwy_loc_navigation_start_ptr
                0x7e053b0c                nwy_loc_navigation_stop_ptr
                0x7e053b10                nwy_loc_navigation_reset_ptr
                0x7e053b14                nwy_loc_recv_cb_reg_ptr
                0x7e053b18                nwy_loc_mode_set_ptr
                0x7e053b1c                nwy_loc_startup_set_ptr
                0x7e053b20                nwy_loc_rate_set_ptr
                0x7e053b24                nwy_loc_cfg_nmea_type_ptr
                0x7e053b28                nwy_loc_nmea_get_ptr
                0x7e053b2c                nwy_loc_nmea_parse_ptr
                0x7e053b30                nwy_loc_agnss_start_ptr
                0x7e053b34                nwy_loc_param_set_ptr
                0x7e053b38                nwy_loc_param_get_ptr
                0x7e053b3c                nwy_data_reg_cb_ptr
                0x7e053b40                nwy_data_unreg_cb_ptr
                0x7e053b44                nwy_data_call_start_ptr
                0x7e053b48                nwy_data_call_stop_ptr
                0x7e053b4c                nwy_data_profile_get_ptr
                0x7e053b50                nwy_data_profile_set_ptr
                0x7e053b54                nwy_data_auto_connect_set_ptr
                0x7e053b58                nwy_data_call_info_get_ptr
                0x7e053b5c                nwy_data_flow_info_get_ptr
                0x7e053b60                nwy_data_eps_dyn_apn_get_ptr
                0x7e053b64                nwy_data_dhcp_get_ptr
                0x7e053b68                nwy_data_dhcp_set_ptr
                0x7e053b6c                nwy_data_dns_info_get_ptr
                0x7e053b70                nwy_data_get_capability_ptr
                0x7e053b74                mbedtls_ssl_conf_max_version_ptr
                0x7e053b78                mbedtls_ssl_conf_min_version_ptr
                0x7e053b7c                mbedtls_ssl_conf_authmode_ptr
                0x7e053b80                mbedtls_ssl_conf_ca_chain_ptr
                0x7e053b84                mbedtls_ssl_conf_own_cert_ptr
                0x7e053b88                mbedtls_ssl_conf_rng_ptr
                0x7e053b8c                mbedtls_ssl_conf_dbg_ptr
                0x7e053b90                mbedtls_ssl_setup_ptr
                0x7e053b94                mbedtls_ssl_set_hostname_ptr
                0x7e053b98                mbedtls_ssl_set_bio_ptr
                0x7e053b9c                mbedtls_ssl_handshake_ptr
                0x7e053ba0                mbedtls_ssl_get_verify_result_ptr
                0x7e053ba4                mbedtls_net_connect_ptr
                0x7e053ba8                mbedtls_net_init_ptr
                0x7e053bac                mbedtls_net_bind_ptr
                0x7e053bb0                mbedtls_net_accept_ptr
                0x7e053bb4                mbedtls_net_poll_ptr
                0x7e053bb8                mbedtls_net_set_block_ptr
                0x7e053bbc                mbedtls_net_set_nonblock_ptr
                0x7e053bc0                mbedtls_net_usleep_ptr
                0x7e053bc4                mbedtls_net_recv_ptr
                0x7e053bc8                mbedtls_net_send_ptr
                0x7e053bcc                mbedtls_net_recv_timeout_ptr
                0x7e053bd0                mbedtls_net_free_ptr
                0x7e053bd4                mbedtls_pk_init_ptr
                0x7e053bd8                mbedtls_pk_free_ptr
                0x7e053bdc                mbedtls_ssl_init_ptr
                0x7e053be0                mbedtls_ssl_read_ptr
                0x7e053be4                mbedtls_ssl_write_ptr
                0x7e053be8                mbedtls_ssl_send_alert_message_ptr
                0x7e053bec                mbedtls_ssl_close_notify_ptr
                0x7e053bf0                mbedtls_ssl_free_ptr
                0x7e053bf4                mbedtls_ssl_config_init_ptr
                0x7e053bf8                mbedtls_ssl_config_defaults_ptr
                0x7e053bfc                mbedtls_ssl_config_free_ptr
                0x7e053c00                mbedtls_ssl_session_init_ptr
                0x7e053c04                mbedtls_ssl_session_free_ptr
                0x7e053c08                mbedtls_ssl_conf_read_timeout_ptr
                0x7e053c0c                mbedtls_ssl_set_timer_cb_ptr
                0x7e053c10                mbedtls_platform_set_calloc_free_ptr
                0x7e053c14                mbedtls_x509_crt_parse_der_ptr
                0x7e053c18                mbedtls_x509_crt_parse_ptr
                0x7e053c1c                mbedtls_x509_crt_info_ptr
                0x7e053c20                mbedtls_x509_crt_verify_info_ptr
                0x7e053c24                mbedtls_x509_crt_verify_ptr
                0x7e053c28                mbedtls_x509_crt_verify_with_profile_ptr
                0x7e053c2c                mbedtls_x509_crt_verify_restartable_ptr
                0x7e053c30                mbedtls_x509_crt_init_ptr
                0x7e053c34                mbedtls_x509_crt_free_ptr
                0x7e053c38                mbedtls_pk_parse_key_ptr
                0x7e053c3c                mbedtls_entropy_free_ptr
                0x7e053c40                mbedtls_entropy_init_ptr
                0x7e053c44                mbedtls_entropy_func_ptr
                0x7e053c48                mbedtls_ctr_drbg_random_ptr
                0x7e053c4c                mbedtls_ctr_drbg_free_ptr
                0x7e053c50                mbedtls_ctr_drbg_seed_ptr
                0x7e053c54                mbedtls_ctr_drbg_init_ptr
                0x7e053c58                mbedtls_ssl_get_bytes_avail_ptr
                0x7e053c5c                mbedtls_ssl_conf_ciphersuites_ptr
                0x7e053c60                mbedtls_sha1_init_ptr
                0x7e053c64                mbedtls_sha1_update_ptr
                0x7e053c68                mbedtls_sha1_finish_ptr
                0x7e053c6c                mbedtls_base64_encode_ptr
                0x7e053c70                mbedtls_ssl_session_reset_ptr
                0x7e053c74                mbedtls_pk_get_type_ptr
                0x7e053c78                mbedtls_ssl_conf_renegotiation_ptr
                0x7e053c7c                mbedtls_ssl_set_session_ptr
                0x7e053c80                mbedtls_aes_init_ptr
                0x7e053c84                mbedtls_aes_free_ptr
                0x7e053c88                mbedtls_aes_xts_init_ptr
                0x7e053c8c                mbedtls_aes_xts_free_ptr
                0x7e053c90                mbedtls_aes_setkey_enc_ptr
                0x7e053c94                mbedtls_aes_setkey_dec_ptr
                0x7e053c98                mbedtls_aes_xts_setkey_enc_ptr
                0x7e053c9c                mbedtls_aes_xts_setkey_dec_ptr
                0x7e053ca0                mbedtls_aes_crypt_ecb_ptr
                0x7e053ca4                mbedtls_aes_crypt_cbc_ptr
                0x7e053ca8                mbedtls_aes_crypt_xts_ptr
                0x7e053cac                mbedtls_aes_crypt_cfb128_ptr
                0x7e053cb0                mbedtls_aes_crypt_cfb8_ptr
                0x7e053cb4                mbedtls_aes_crypt_ofb_ptr
                0x7e053cb8                mbedtls_aes_crypt_ctr_ptr
                0x7e053cbc                nwy_ssl_version_info_get_ptr
                0x7e053cc0                mbedtls_internal_aes_encrypt_ptr
                0x7e053cc4                mbedtls_internal_aes_decrypt_ptr
                0x7e053cc8                psa_crypto_init_ptr
                0x7e053ccc                nwy_usb_net_mode_set_ptr
                0x7e053cd0                nwy_usb_net_mode_get_ptr
                0x7e053cd4                nwy_i2c_init_ptr
                0x7e053cd8                nwy_i2c_read_ptr
                0x7e053cdc                nwy_i2c_write_ptr
                0x7e053ce0                nwy_i2c_deinit_ptr
                0x7e053ce4                nwy_i2c_raw_get_byte_ptr
                0x7e053ce8                nwy_i2c_raw_put_byte_ptr
                0x7e053cec                nwy_spi_init_ptr
                0x7e053cf0                nwy_spi_cs_cfg_ptr
                0x7e053cf4                nwy_spi_transfer_ptr
                0x7e053cf8                nwy_spi_deinit_ptr
                0x7e053cfc                nwy_spi_read_ptr
                0x7e053d00                nwy_spi_write_ptr
                0x7e053d04                nwy_sms_option_init_ptr
                0x7e053d08                nwy_sms_storage_set_ptr
                0x7e053d0c                nwy_sms_storage_get_ptr
                0x7e053d10                nwy_sms_report_set_ptr
                0x7e053d14                nwy_sms_sca_set_ptr
                0x7e053d18                nwy_sms_sca_get_ptr
                0x7e053d1c                nwy_sms_msg_send_ptr
                0x7e053d20                nwy_sms_recv_cb_reg_ptr
                0x7e053d24                nwy_sms_recv_cb_unreg_ptr
                0x7e053d28                nwy_sms_msg_del_ptr
                0x7e053d2c                nwy_sms_msg_read_ptr
                0x7e053d30                nwy_sms_msg_del_ext_ptr
                0x7e053d34                nwy_sms_msg_list_read_ptr
                0x7e053d38                nwy_nw_mode_get_ptr
                0x7e053d3c                nwy_nw_mode_set_ptr
                0x7e053d40                nwy_nw_priband_get_ptr
                0x7e053d44                nwy_nw_priband_set_ptr
                0x7e053d48                nwy_nw_ims_get_ptr
                0x7e053d4c                nwy_nw_ims_set_ptr
                0x7e053d50                nwy_nw_radio_get_ptr
                0x7e053d54                nwy_nw_radio_set_ptr
                0x7e053d58                nwy_nw_config_get_ptr
                0x7e053d5c                nwy_nw_config_set_ptr
                0x7e053d60                nwy_nw_operator_get_ptr
                0x7e053d64                nwy_nw_csq_get_ptr
                0x7e053d68                nwy_nw_signal_get_ptr
                0x7e053d6c                nwy_nw_regstatus_get_ptr
                0x7e053d70                nwy_nw_cellinfo_get_ptr
                0x7e053d74                nwy_nw_lock_set_ptr
                0x7e053d78                nwy_nw_lock_get_ptr
                0x7e053d7c                nwy_nw_manual_select_ptr
                0x7e053d80                nwy_nw_scan_ptr
                0x7e053d84                nwy_nw_psm_get_ptr
                0x7e053d88                nwy_nw_psm_set_ptr
                0x7e053d8c                nwy_nw_get_forbidden_plmn_ptr
                0x7e053d90                nwy_nw_reg_cb_ptr
                0x7e053d94                nwy_nw_unreg_cb_ptr
                0x7e053d98                nwy_get_time_zone_switch_ptr
                0x7e053d9c                nwy_set_time_zone_switch_ptr
                0x7e053da0                nwy_dm_nwcfg_get_ptr
                0x7e053da4                nwy_dm_nwcfg_set_ptr
                0x7e053da8                nwy_virt_at_parameter_init_ptr
                0x7e053dac                nwy_virt_at_cmd_send_ptr
                0x7e053db0                nwy_virt_at_unsolicited_cb_reg_ptr
                0x7e053db4                nwy_virt_at_get_original_rsp_cb_ptr
                0x7e053db8                nwy_virt_at_forward_cb_ptr
                0x7e053dbc                nwy_virt_at_forward_send_ptr
                0x7e053dc0                nwy_pm_vbat_voltage_get_ptr
                0x7e053dc4                nwy_ping_start_ptr
                0x7e053dc8                NetworkInit_ptr
                0x7e053dcc                NetworkConnect_ptr
                0x7e053dd0                NetworkDisconnect_ptr
                0x7e053dd4                MQTTClientInit_ptr
                0x7e053dd8                MQTTConnect_ptr
                0x7e053ddc                MQTTPublish_ptr
                0x7e053de0                MQTTSetMessageHandler_ptr
                0x7e053de4                MQTTSubscribe_ptr
                0x7e053de8                MQTTUnsubscribe_ptr
                0x7e053dec                MQTTDisconnect_ptr
                0x7e053df0                MQTTYield_ptr
                0x7e053df4                MQTTIsConnected_ptr
                0x7e053df8                nwy_gpio_direction_get_ptr
                0x7e053dfc                nwy_gpio_direction_set_ptr
                0x7e053e00                nwy_gpio_value_get_ptr
                0x7e053e04                nwy_gpio_value_set_ptr
                0x7e053e08                nwy_gpio_pull_get_ptr
                0x7e053e0c                nwy_gpio_pull_set_ptr
                0x7e053e10                nwy_gpio_irq_register_ptr
                0x7e053e14                nwy_gpio_irq_enable_ptr
                0x7e053e18                nwy_gpio_irq_disable_ptr
                0x7e053e1c                nwy_gpio_irq_wakeup_enable_ptr
                0x7e053e20                nwy_gpio_irq_wakeup_disable_ptr
                0x7e053e24                nwy_gpio_close_ptr
                0x7e053e28                nwy_uart_open_ptr
                0x7e053e2c                nwy_uart_read_ptr
                0x7e053e30                nwy_uart_write_ptr
                0x7e053e34                nwy_uart_dcb_set_ptr
                0x7e053e38                nwy_uart_dcb_get_ptr
                0x7e053e3c                nwy_uart_close_ptr
                0x7e053e40                nwy_uart_rx_cb_register_ptr
                0x7e053e44                nwy_uart_tx_cb_register_ptr
                0x7e053e48                nwy_uart_rx_frame_timeout_set_ptr
                0x7e053e4c                nwy_adc_get_ptr
                0x7e053e50                nwy_dev_name_list_get_ptr
                0x7e053e54                nwy_sat_set_on_off_ptr
                0x7e053e58                nwy_sat_get_on_off_ptr
                0x7e053e5c                nwy_sat_terminal_response_ptr
                0x7e053e60                nwy_sat_envelope_command_ptr
                0x7e053e64                nwy_sat_set_profile_ptr
                0x7e053e68                nwy_sat_get_profile_ptr
                0x7e053e6c                nwy_sat_recv_data_ptr
                0x7e053e70                nwy_fota_write_ptr
                0x7e053e74                nwy_fota_update_ptr
                0x7e053e78                nwy_fota_result_get_ptr
                0x7e053e7c                nwy_fota_base_ver_update_ptr
                0x7e053e80                nwy_vfs_logical_block_device_create_ptr
                0x7e053e84                nwy_vfs_mount_ptr
                0x7e053e88                nwy_vfs_unmount_ptr
                0x7e053e8c                nwy_vfs_mkfs_ptr
                0x7e053e90                nwy_dm_soc_model_get_ptr
 .data._impure_ptr
                0x7e053e94        0x4 ../tools/GNU_Arm_Toolchain/arm-none-eabi/lib/thumb/v7/nofp/libc.a(lib_a-impure.o)
                0x7e053e94                _impure_ptr
 .data.impure_data
                0x7e053e98      0x428 ../tools/GNU_Arm_Toolchain/arm-none-eabi/lib/thumb/v7/nofp/libc.a(lib_a-impure.o)
 .data.__global_locale
                0x7e0542c0      0x16c ../tools/GNU_Arm_Toolchain/arm-none-eabi/lib/thumb/v7/nofp/libc.a(lib_a-locale.o)
                0x7e0542c0                __global_locale
 .data.__malloc_av_
                0x7e05442c      0x408 ../tools/GNU_Arm_Toolchain/arm-none-eabi/lib/thumb/v7/nofp/libc.a(lib_a-mallocr.o)
                0x7e05442c                __malloc_av_
 .data.__malloc_sbrk_base
                0x7e054834        0x4 ../tools/GNU_Arm_Toolchain/arm-none-eabi/lib/thumb/v7/nofp/libc.a(lib_a-mallocr.o)
                0x7e054834                __malloc_sbrk_base
 .data.__malloc_trim_threshold
                0x7e054838        0x4 ../tools/GNU_Arm_Toolchain/arm-none-eabi/lib/thumb/v7/nofp/libc.a(lib_a-mallocr.o)
                0x7e054838                __malloc_trim_threshold
 .data.numempty
                0x7e05483c        0x2 ../tools/GNU_Arm_Toolchain/arm-none-eabi/lib/thumb/v7/nofp/libc.a(lib_a-lnumeric.o)

.igot.plt       0x7e054840        0x0
 .igot.plt      0x7e054840        0x0 CMakeFiles/nwy_open_app.dir/nwy_test_demo/nwy_test_cli/comm/nwy_test_cli_utils.obj

.bss            0x7e054840     0x2b98
                0x7e054840                __bss_start = .
 *(.bss*)
 .bss.echo_mutex.5
                0x7e054840        0x4 CMakeFiles/nwy_open_app.dir/nwy_test_demo/nwy_test_cli/comm/nwy_test_cli_utils.obj
 .bss.echo_str.4
                0x7e054844      0x800 CMakeFiles/nwy_open_app.dir/nwy_test_demo/nwy_test_cli/comm/nwy_test_cli_utils.obj
 .bss.buf.5     0x7e055044      0x400 CMakeFiles/nwy_open_app.dir/nwy_test_demo/nwy_test_cli/comm/nwy_test_cli_adpt.obj
 .bss.nwy_test_cli_thread
                0x7e055444        0x4 CMakeFiles/nwy_open_app.dir/nwy_test_demo/nwy_test_cli/comm/nwy_test_cli_adpt.obj
 .bss.Usr_Timer_Handle
                0x7e055448        0x4 CMakeFiles/nwy_open_app.dir/nwy_test_demo/odt_vts_application/Peripheral_Driver/driver.obj
 .bss.dbg_uart_hdl
                0x7e05544c        0x4 CMakeFiles/nwy_open_app.dir/nwy_test_demo/odt_vts_application/Peripheral_Driver/driver.obj
                0x7e05544c                dbg_uart_hdl
 .bss.HeartBeat_counter
                0x7e055450        0x2 CMakeFiles/nwy_open_app.dir/nwy_test_demo/odt_vts_application/Peripheral_Driver/drv_callback.obj
                0x7e055450                HeartBeat_counter
 .bss.sim_index
                0x7e055452        0x2 CMakeFiles/nwy_open_app.dir/nwy_test_demo/odt_vts_application/Peripheral_Driver/drv_callback.obj
                0x7e055452                sim_index
 .bss.sms_receive_flag
                0x7e055454        0x1 CMakeFiles/nwy_open_app.dir/nwy_test_demo/odt_vts_application/Peripheral_Driver/drv_callback.obj
                0x7e055454                sms_receive_flag
 .bss.VTS_State
                0x7e055455        0x1 CMakeFiles/nwy_open_app.dir/nwy_test_demo/odt_vts_application/NET_Application/Network.obj
                0x7e055455                VTS_State
 .bss.http_reconnect_count
                0x7e055456        0x1 CMakeFiles/nwy_open_app.dir/nwy_test_demo/odt_vts_application/NET_Application/Network.obj
                0x7e055456                http_reconnect_count
 *fill*         0x7e055457        0x1 
 .bss.Batt_Volt
                0x7e055458        0x4 CMakeFiles/nwy_open_app.dir/nwy_test_demo/odt_vts_application/VTS_Application/VTS_App.obj
                0x7e055458                Batt_Volt
 .bss.Device_ID
                0x7e05545c       0x14 CMakeFiles/nwy_open_app.dir/nwy_test_demo/odt_vts_application/VTS_Application/VTS_App.obj
                0x7e05545c                Device_ID
 .bss.Fixstate  0x7e055470        0x1 CMakeFiles/nwy_open_app.dir/nwy_test_demo/odt_vts_application/VTS_Application/VTS_App.obj
                0x7e055470                Fixstate
 *fill*         0x7e055471        0x3 
 .bss.HeartBeat_interval
                0x7e055474        0x4 CMakeFiles/nwy_open_app.dir/nwy_test_demo/odt_vts_application/VTS_Application/VTS_App.obj
                0x7e055474                HeartBeat_interval
 .bss.Loc_param
                0x7e055478       0x58 CMakeFiles/nwy_open_app.dir/nwy_test_demo/odt_vts_application/VTS_Application/VTS_App.obj
                0x7e055478                Loc_param
 .bss.Prev_Fixstate
                0x7e0554d0        0x1 CMakeFiles/nwy_open_app.dir/nwy_test_demo/odt_vts_application/VTS_Application/VTS_App.obj
                0x7e0554d0                Prev_Fixstate
 *fill*         0x7e0554d1        0x3 
 .bss.Prev_Loc_param
                0x7e0554d4       0x58 CMakeFiles/nwy_open_app.dir/nwy_test_demo/odt_vts_application/VTS_Application/VTS_App.obj
                0x7e0554d4                Prev_Loc_param
 .bss.SendMsg   0x7e05552c        0x1 CMakeFiles/nwy_open_app.dir/nwy_test_demo/odt_vts_application/VTS_Application/VTS_App.obj
                0x7e05552c                SendMsg
 .bss.Status_Param
                0x7e05552d        0xf CMakeFiles/nwy_open_app.dir/nwy_test_demo/odt_vts_application/VTS_Application/VTS_App.obj
                0x7e05552d                Status_Param
 .bss.VTS_flags
                0x7e05553c        0x1 CMakeFiles/nwy_open_app.dir/nwy_test_demo/odt_vts_application/VTS_Application/VTS_App.obj
                0x7e05553c                VTS_flags
 *fill*         0x7e05553d        0x1 
 .bss.HttpS     0x7e05553e     0x1402 CMakeFiles/nwy_open_app.dir/nwy_test_demo/odt_vts_application/HTTP_Server/http.obj
                0x7e05553e                HttpS
 .bss.Http_Config
                0x7e056940       0xb4 CMakeFiles/nwy_open_app.dir/nwy_test_demo/odt_vts_application/HTTP_Server/http.obj
                0x7e056940                Http_Config
 .bss.http_hdl1
                0x7e0569f4        0x4 CMakeFiles/nwy_open_app.dir/nwy_test_demo/odt_vts_application/HTTP_Server/http.obj
                0x7e0569f4                http_hdl1
 .bss.Ftp_config
                0x7e0569f8      0x102 CMakeFiles/nwy_open_app.dir/nwy_test_demo/odt_vts_application/OTA/ota.obj
                0x7e0569f8                Ftp_config
 .bss.frame     0x7e056afa        0x1 CMakeFiles/nwy_open_app.dir/nwy_test_demo/odt_vts_application/OTA/ota.obj
                0x7e056afa                frame
 .bss.g_filename1
                0x7e056afb       0x40 CMakeFiles/nwy_open_app.dir/nwy_test_demo/odt_vts_application/OTA/ota.obj
                0x7e056afb                g_filename1
 *fill*         0x7e056b3b        0x1 
 .bss.g_ftp_fota_handl1
                0x7e056b3c        0x4 CMakeFiles/nwy_open_app.dir/nwy_test_demo/odt_vts_application/OTA/ota.obj
                0x7e056b3c                g_ftp_fota_handl1
 .bss.g_ftp_get_param1
                0x7e056b40       0x10 CMakeFiles/nwy_open_app.dir/nwy_test_demo/odt_vts_application/OTA/ota.obj
                0x7e056b40                g_ftp_get_param1
 .bss.g_ota_pack1
                0x7e056b50       0x10 CMakeFiles/nwy_open_app.dir/nwy_test_demo/odt_vts_application/OTA/ota.obj
                0x7e056b50                g_ota_pack1
 .bss.ota_in_progress
                0x7e056b60        0x1 CMakeFiles/nwy_open_app.dir/nwy_test_demo/odt_vts_application/OTA/ota.obj
 .bss.received_version
                0x7e056b61       0x14 CMakeFiles/nwy_open_app.dir/nwy_test_demo/odt_vts_application/SMS/sms.obj
                0x7e056b61                received_version
 *fill*         0x7e056b75        0x3 
 .bss.flash_dir_hdl.0
                0x7e056b78      0x818 CMakeFiles/nwy_open_app.dir/nwy_test_demo/odt_vts_application/Flash/flash.obj
 .bss.__lock___malloc_recursive_mutex
                0x7e057390        0x1 ../tools/GNU_Arm_Toolchain/arm-none-eabi/lib/thumb/v7/nofp/libc.a(lib_a-lock.o)
                0x7e057390                __lock___malloc_recursive_mutex
 *fill*         0x7e057391        0x3 
 .bss.__lock___sfp_recursive_mutex
                0x7e057394        0x1 ../tools/GNU_Arm_Toolchain/arm-none-eabi/lib/thumb/v7/nofp/libc.a(lib_a-lock.o)
                0x7e057394                __lock___sfp_recursive_mutex
 *fill*         0x7e057395        0x3 
 .bss.__lock___sinit_recursive_mutex
                0x7e057398        0x1 ../tools/GNU_Arm_Toolchain/arm-none-eabi/lib/thumb/v7/nofp/libc.a(lib_a-lock.o)
                0x7e057398                __lock___sinit_recursive_mutex
 *fill*         0x7e057399        0x3 
 .bss.__malloc_current_mallinfo
                0x7e05739c       0x28 ../tools/GNU_Arm_Toolchain/arm-none-eabi/lib/thumb/v7/nofp/libc.a(lib_a-mallocr.o)
                0x7e05739c                __malloc_current_mallinfo
 .bss.__malloc_max_sbrked_mem
                0x7e0573c4        0x4 ../tools/GNU_Arm_Toolchain/arm-none-eabi/lib/thumb/v7/nofp/libc.a(lib_a-mallocr.o)
                0x7e0573c4                __malloc_max_sbrked_mem
 .bss.__malloc_max_total_mem
                0x7e0573c8        0x4 ../tools/GNU_Arm_Toolchain/arm-none-eabi/lib/thumb/v7/nofp/libc.a(lib_a-mallocr.o)
                0x7e0573c8                __malloc_max_total_mem
 .bss.__malloc_top_pad
                0x7e0573cc        0x4 ../tools/GNU_Arm_Toolchain/arm-none-eabi/lib/thumb/v7/nofp/libc.a(lib_a-mallocr.o)
                0x7e0573cc                __malloc_top_pad
 .bss.errno     0x7e0573d0        0x4 ../tools/GNU_Arm_Toolchain/arm-none-eabi/lib/thumb/v7/nofp/libc.a(lib_a-reent.o)
                0x7e0573d0                errno
 .bss.heap_end.0
                0x7e0573d4        0x4 ../tools/GNU_Arm_Toolchain/arm-none-eabi/lib/thumb/v7/nofp/libnosys.a(sbrk.o)
                0x7e0573d8                __bss_end = .
                0x7e0573d8                end = .
OUTPUT(bin\nwy_open_app.elf elf32-littlearm)
LOAD linker stubs

.debug_info     0x00000000    0x12366
 .debug_info    0x00000000      0x90d CMakeFiles/nwy_open_app.dir/nwy_test_demo/nwy_test_cli/comm/nwy_test_cli_utils.obj
 .debug_info    0x0000090d      0xd2e CMakeFiles/nwy_open_app.dir/nwy_test_demo/nwy_test_cli/comm/nwy_test_cli_adpt.obj
 .debug_info    0x0000163b      0xc61 CMakeFiles/nwy_open_app.dir/nwy_test_demo/odt_vts_application/Peripheral_Driver/driver.obj
 .debug_info    0x0000229c      0x794 CMakeFiles/nwy_open_app.dir/nwy_test_demo/odt_vts_application/Peripheral_Driver/drv_callback.obj
 .debug_info    0x00002a30     0x116f CMakeFiles/nwy_open_app.dir/nwy_test_demo/odt_vts_application/NET_Application/Network.obj
 .debug_info    0x00003b9f     0x23cf CMakeFiles/nwy_open_app.dir/nwy_test_demo/odt_vts_application/VTS_Application/VTS_App.obj
 .debug_info    0x00005f6e     0x1150 CMakeFiles/nwy_open_app.dir/nwy_test_demo/odt_vts_application/HTTP_Server/http.obj
 .debug_info    0x000070be      0xcd6 CMakeFiles/nwy_open_app.dir/nwy_test_demo/odt_vts_application/OTA/ota.obj
 .debug_info    0x00007d94     0x1323 CMakeFiles/nwy_open_app.dir/nwy_test_demo/odt_vts_application/SMS/sms.obj
 .debug_info    0x000090b7      0xb68 CMakeFiles/nwy_open_app.dir/nwy_test_demo/odt_vts_application/Flash/flash.obj
 .debug_info    0x00009c1f       0xb4 ../build/nwy_open_stub.a(nwy_open_stub.o)
                0x00009c1f                __ARM_grp_.debug_info$nwy_baseline_version.h$2_Av0000_HXqOM2RX$S1_200000
                0x00009c1f                __ARM_cc.nwy_baseline_version.h.2_Av0000_HXqOM2RX$S1_200000
 .debug_info    0x00009cd3       0xa2 ../build/nwy_open_stub.a(nwy_open_stub.o)
                0x00009cd3                __ARM_grp_.debug_info$nwy_cust.h$2_eB0000_mKnPuo88TC0_200000
                0x00009cd3                __ARM_cc.nwy_cust.h.2_eB0000_mKnPuo88TC0_200000
 .debug_info    0x00009d75       0xb7 ../build/nwy_open_stub.a(nwy_open_stub.o)
                0x00009d75                __ARM_cc.nwy_open_api_list.h.2_Hq0000_dmwXULy$i1a_200000
                0x00009d75                __ARM_grp_.debug_info$nwy_open_api_list.h$2_Hq0000_dmwXULy$i1a_200000
 .debug_info    0x00009e2c      0x20d ../build/nwy_open_stub.a(nwy_open_stub.o)
                0x00009e2c                __ARM_grp_.debug_info$nwy_open_stub.c$2_8x1000_hcpD5Ok4GX9_700000
                0x00009e2c                __ARM_cc.nwy_open_stub.c.2_8x1000_hcpD5Ok4GX9_700000
 .debug_info    0x0000a039       0xa5 ../build/nwy_open_stub.a(nwy_open_stub.o)
 .debug_info    0x0000a0de     0x7d9f ../build/nwy_open_stub.a(nwy_open_stub.o)
 .debug_info    0x00011e7d       0xff ../build/nwy_open_stub.a(nwy_open_stub.o)
 .debug_info    0x00011f7c      0x14d ../build/nwy_open_stub.a(nwy_open_stub.o)
 .debug_info    0x000120c9      0x162 ../build/nwy_open_stub.a(nwy_open_stub.o)
 .debug_info    0x0001222b      0x13b ../build/nwy_open_stub.a(nwy_open_stub.o)

.debug_abbrev   0x00000000     0x2137
 .debug_abbrev  0x00000000      0x2cb CMakeFiles/nwy_open_app.dir/nwy_test_demo/nwy_test_cli/comm/nwy_test_cli_utils.obj
 .debug_abbrev  0x000002cb      0x273 CMakeFiles/nwy_open_app.dir/nwy_test_demo/nwy_test_cli/comm/nwy_test_cli_adpt.obj
 .debug_abbrev  0x0000053e      0x267 CMakeFiles/nwy_open_app.dir/nwy_test_demo/odt_vts_application/Peripheral_Driver/driver.obj
 .debug_abbrev  0x000007a5      0x200 CMakeFiles/nwy_open_app.dir/nwy_test_demo/odt_vts_application/Peripheral_Driver/drv_callback.obj
 .debug_abbrev  0x000009a5      0x2e7 CMakeFiles/nwy_open_app.dir/nwy_test_demo/odt_vts_application/NET_Application/Network.obj
 .debug_abbrev  0x00000c8c      0x440 CMakeFiles/nwy_open_app.dir/nwy_test_demo/odt_vts_application/VTS_Application/VTS_App.obj
 .debug_abbrev  0x000010cc      0x32e CMakeFiles/nwy_open_app.dir/nwy_test_demo/odt_vts_application/HTTP_Server/http.obj
 .debug_abbrev  0x000013fa      0x216 CMakeFiles/nwy_open_app.dir/nwy_test_demo/odt_vts_application/OTA/ota.obj
 .debug_abbrev  0x00001610      0x302 CMakeFiles/nwy_open_app.dir/nwy_test_demo/odt_vts_application/SMS/sms.obj
 .debug_abbrev  0x00001912      0x25f CMakeFiles/nwy_open_app.dir/nwy_test_demo/odt_vts_application/Flash/flash.obj
 .debug_abbrev  0x00001b71       0x12 ../build/nwy_open_stub.a(nwy_open.o)
                0x00001b71                __ARM_asm.debug_abbrev
 .debug_abbrev  0x00001b83      0x5b4 ../build/nwy_open_stub.a(nwy_open_stub.o)
                0x00001b83                __ARM_cc..debug_abbrev.group.2_Qm0000_67g8QvEltX8_000000

.debug_loc      0x00000000     0x1697
 .debug_loc     0x00000000      0x321 CMakeFiles/nwy_open_app.dir/nwy_test_demo/nwy_test_cli/comm/nwy_test_cli_utils.obj
 .debug_loc     0x00000321      0x295 CMakeFiles/nwy_open_app.dir/nwy_test_demo/nwy_test_cli/comm/nwy_test_cli_adpt.obj
 .debug_loc     0x000005b6      0x1d9 CMakeFiles/nwy_open_app.dir/nwy_test_demo/odt_vts_application/Peripheral_Driver/driver.obj
 .debug_loc     0x0000078f      0x26f CMakeFiles/nwy_open_app.dir/nwy_test_demo/odt_vts_application/Peripheral_Driver/drv_callback.obj
 .debug_loc     0x000009fe       0x22 CMakeFiles/nwy_open_app.dir/nwy_test_demo/odt_vts_application/NET_Application/Network.obj
 .debug_loc     0x00000a20       0x78 CMakeFiles/nwy_open_app.dir/nwy_test_demo/odt_vts_application/VTS_Application/VTS_App.obj
 .debug_loc     0x00000a98      0x2f0 CMakeFiles/nwy_open_app.dir/nwy_test_demo/odt_vts_application/HTTP_Server/http.obj
 .debug_loc     0x00000d88      0x3b7 CMakeFiles/nwy_open_app.dir/nwy_test_demo/odt_vts_application/OTA/ota.obj
 .debug_loc     0x0000113f      0x22e CMakeFiles/nwy_open_app.dir/nwy_test_demo/odt_vts_application/SMS/sms.obj
 .debug_loc     0x0000136d      0x1e7 CMakeFiles/nwy_open_app.dir/nwy_test_demo/odt_vts_application/Flash/flash.obj
 .debug_loc     0x00001554       0x14 ../build/nwy_open_stub.a(nwy_open_stub.o)
 .debug_loc     0x00001568       0x77 ../build/nwy_open_stub.a(nwy_open_stub.o)
 .debug_loc     0x000015df       0x5c ../build/nwy_open_stub.a(nwy_open_stub.o)
 .debug_loc     0x0000163b       0x5c ../build/nwy_open_stub.a(nwy_open_stub.o)

.debug_aranges  0x00000000      0x368
 .debug_aranges
                0x00000000       0x60 CMakeFiles/nwy_open_app.dir/nwy_test_demo/nwy_test_cli/comm/nwy_test_cli_utils.obj
 .debug_aranges
                0x00000060       0x80 CMakeFiles/nwy_open_app.dir/nwy_test_demo/nwy_test_cli/comm/nwy_test_cli_adpt.obj
 .debug_aranges
                0x000000e0       0x78 CMakeFiles/nwy_open_app.dir/nwy_test_demo/odt_vts_application/Peripheral_Driver/driver.obj
 .debug_aranges
                0x00000158       0x30 CMakeFiles/nwy_open_app.dir/nwy_test_demo/odt_vts_application/Peripheral_Driver/drv_callback.obj
 .debug_aranges
                0x00000188       0x38 CMakeFiles/nwy_open_app.dir/nwy_test_demo/odt_vts_application/NET_Application/Network.obj
 .debug_aranges
                0x000001c0       0x48 CMakeFiles/nwy_open_app.dir/nwy_test_demo/odt_vts_application/VTS_Application/VTS_App.obj
 .debug_aranges
                0x00000208       0x40 CMakeFiles/nwy_open_app.dir/nwy_test_demo/odt_vts_application/HTTP_Server/http.obj
 .debug_aranges
                0x00000248       0x28 CMakeFiles/nwy_open_app.dir/nwy_test_demo/odt_vts_application/OTA/ota.obj
 .debug_aranges
                0x00000270       0x30 CMakeFiles/nwy_open_app.dir/nwy_test_demo/odt_vts_application/SMS/sms.obj
 .debug_aranges
                0x000002a0       0x48 CMakeFiles/nwy_open_app.dir/nwy_test_demo/odt_vts_application/Flash/flash.obj
 .debug_aranges
                0x000002e8       0x20 ../build/nwy_open_stub.a(nwy_open_stub.o)
 .debug_aranges
                0x00000308       0x20 ../build/nwy_open_stub.a(nwy_open_stub.o)
 .debug_aranges
                0x00000328       0x20 ../build/nwy_open_stub.a(nwy_open_stub.o)
 .debug_aranges
                0x00000348       0x20 ../build/nwy_open_stub.a(nwy_open_stub.o)

.debug_ranges   0x00000000      0x488
 .debug_ranges  0x00000000       0x68 CMakeFiles/nwy_open_app.dir/nwy_test_demo/nwy_test_cli/comm/nwy_test_cli_utils.obj
 .debug_ranges  0x00000068       0x70 CMakeFiles/nwy_open_app.dir/nwy_test_demo/nwy_test_cli/comm/nwy_test_cli_adpt.obj
 .debug_ranges  0x000000d8       0x68 CMakeFiles/nwy_open_app.dir/nwy_test_demo/odt_vts_application/Peripheral_Driver/driver.obj
 .debug_ranges  0x00000140       0x70 CMakeFiles/nwy_open_app.dir/nwy_test_demo/odt_vts_application/Peripheral_Driver/drv_callback.obj
 .debug_ranges  0x000001b0       0x88 CMakeFiles/nwy_open_app.dir/nwy_test_demo/odt_vts_application/NET_Application/Network.obj
 .debug_ranges  0x00000238       0x68 CMakeFiles/nwy_open_app.dir/nwy_test_demo/odt_vts_application/VTS_Application/VTS_App.obj
 .debug_ranges  0x000002a0       0x70 CMakeFiles/nwy_open_app.dir/nwy_test_demo/odt_vts_application/HTTP_Server/http.obj
 .debug_ranges  0x00000310       0x18 CMakeFiles/nwy_open_app.dir/nwy_test_demo/odt_vts_application/OTA/ota.obj
 .debug_ranges  0x00000328       0xc0 CMakeFiles/nwy_open_app.dir/nwy_test_demo/odt_vts_application/SMS/sms.obj
 .debug_ranges  0x000003e8       0xa0 CMakeFiles/nwy_open_app.dir/nwy_test_demo/odt_vts_application/Flash/flash.obj

.debug_line     0x00000000     0x4262
 .debug_line    0x00000000      0x60b CMakeFiles/nwy_open_app.dir/nwy_test_demo/nwy_test_cli/comm/nwy_test_cli_utils.obj
 .debug_line    0x0000060b      0x6b0 CMakeFiles/nwy_open_app.dir/nwy_test_demo/nwy_test_cli/comm/nwy_test_cli_adpt.obj
 .debug_line    0x00000cbb      0x648 CMakeFiles/nwy_open_app.dir/nwy_test_demo/odt_vts_application/Peripheral_Driver/driver.obj
 .debug_line    0x00001303      0x34c CMakeFiles/nwy_open_app.dir/nwy_test_demo/odt_vts_application/Peripheral_Driver/drv_callback.obj
 .debug_line    0x0000164f      0x6e3 CMakeFiles/nwy_open_app.dir/nwy_test_demo/odt_vts_application/NET_Application/Network.obj
 .debug_line    0x00001d32      0x7c7 CMakeFiles/nwy_open_app.dir/nwy_test_demo/odt_vts_application/VTS_Application/VTS_App.obj
 .debug_line    0x000024f9      0x783 CMakeFiles/nwy_open_app.dir/nwy_test_demo/odt_vts_application/HTTP_Server/http.obj
 .debug_line    0x00002c7c      0x65f CMakeFiles/nwy_open_app.dir/nwy_test_demo/odt_vts_application/OTA/ota.obj
 .debug_line    0x000032db      0x673 CMakeFiles/nwy_open_app.dir/nwy_test_demo/odt_vts_application/SMS/sms.obj
 .debug_line    0x0000394e      0x4e0 CMakeFiles/nwy_open_app.dir/nwy_test_demo/odt_vts_application/Flash/flash.obj
 .debug_line    0x00003e2e       0x5a ../build/nwy_open_stub.a(nwy_open_stub.o)
 .debug_line    0x00003e88       0x82 ../build/nwy_open_stub.a(nwy_open_stub.o)
 .debug_line    0x00003f0a       0x20 ../build/nwy_open_stub.a(nwy_open_stub.o)
 .debug_line    0x00003f2a       0xa1 ../build/nwy_open_stub.a(nwy_open_stub.o)
 .debug_line    0x00003fcb       0x4a ../build/nwy_open_stub.a(nwy_open_stub.o)
 .debug_line    0x00004015       0x20 ../build/nwy_open_stub.a(nwy_open_stub.o)
 .debug_line    0x00004035       0x70 ../build/nwy_open_stub.a(nwy_open_stub.o)
 .debug_line    0x000040a5       0x94 ../build/nwy_open_stub.a(nwy_open_stub.o)
 .debug_line    0x00004139       0xb5 ../build/nwy_open_stub.a(nwy_open_stub.o)
 .debug_line    0x000041ee       0x74 ../build/nwy_open_stub.a(nwy_open_stub.o)

.debug_str      0x00000000     0x45c5
 .debug_str     0x00000000      0x4c8 CMakeFiles/nwy_open_app.dir/nwy_test_demo/nwy_test_cli/comm/nwy_test_cli_utils.obj
                                0x527 (size before relaxing)
 .debug_str     0x000004c8      0x836 CMakeFiles/nwy_open_app.dir/nwy_test_demo/nwy_test_cli/comm/nwy_test_cli_adpt.obj
                                0xb3f (size before relaxing)
 .debug_str     0x00000cfe      0x5a6 CMakeFiles/nwy_open_app.dir/nwy_test_demo/odt_vts_application/Peripheral_Driver/driver.obj
                                0xd0a (size before relaxing)
 .debug_str     0x000012a4      0x5b9 CMakeFiles/nwy_open_app.dir/nwy_test_demo/odt_vts_application/Peripheral_Driver/drv_callback.obj
                                0x83a (size before relaxing)
 .debug_str     0x0000185d      0xb45 CMakeFiles/nwy_open_app.dir/nwy_test_demo/odt_vts_application/NET_Application/Network.obj
                               0x1448 (size before relaxing)
 .debug_str     0x000023a2     0x148d CMakeFiles/nwy_open_app.dir/nwy_test_demo/odt_vts_application/VTS_Application/VTS_App.obj
                               0x21d9 (size before relaxing)
 .debug_str     0x0000382f      0x463 CMakeFiles/nwy_open_app.dir/nwy_test_demo/odt_vts_application/HTTP_Server/http.obj
                                0x9bd (size before relaxing)
 .debug_str     0x00003c92      0x49e CMakeFiles/nwy_open_app.dir/nwy_test_demo/odt_vts_application/OTA/ota.obj
                                0xe90 (size before relaxing)
 .debug_str     0x00004130      0x2b8 CMakeFiles/nwy_open_app.dir/nwy_test_demo/odt_vts_application/SMS/sms.obj
                               0x1075 (size before relaxing)
 .debug_str     0x000043e8      0x1dd CMakeFiles/nwy_open_app.dir/nwy_test_demo/odt_vts_application/Flash/flash.obj
                                0x97c (size before relaxing)

.comment        0x00000000      0x28e
 .comment       0x00000000       0x49 CMakeFiles/nwy_open_app.dir/nwy_test_demo/nwy_test_cli/comm/nwy_test_cli_utils.obj
                                 0x4a (size before relaxing)
 .comment       0x00000049       0x4a CMakeFiles/nwy_open_app.dir/nwy_test_demo/nwy_test_cli/comm/nwy_test_cli_adpt.obj
 .comment       0x00000049       0x4a CMakeFiles/nwy_open_app.dir/nwy_test_demo/odt_vts_application/Peripheral_Driver/driver.obj
 .comment       0x00000049       0x4a CMakeFiles/nwy_open_app.dir/nwy_test_demo/odt_vts_application/Peripheral_Driver/drv_callback.obj
 .comment       0x00000049       0x4a CMakeFiles/nwy_open_app.dir/nwy_test_demo/odt_vts_application/NET_Application/Network.obj
 .comment       0x00000049       0x4a CMakeFiles/nwy_open_app.dir/nwy_test_demo/odt_vts_application/VTS_Application/VTS_App.obj
 .comment       0x00000049       0x4a CMakeFiles/nwy_open_app.dir/nwy_test_demo/odt_vts_application/HTTP_Server/http.obj
 .comment       0x00000049       0x4a CMakeFiles/nwy_open_app.dir/nwy_test_demo/odt_vts_application/OTA/ota.obj
 .comment       0x00000049       0x4a CMakeFiles/nwy_open_app.dir/nwy_test_demo/odt_vts_application/SMS/sms.obj
 .comment       0x00000049       0x4a CMakeFiles/nwy_open_app.dir/nwy_test_demo/odt_vts_application/Flash/flash.obj
 .comment       0x00000049       0xdc ../build/nwy_open_stub.a(nwy_open.o)
 .comment       0x00000125      0x169 ../build/nwy_open_stub.a(nwy_open_stub.o)

.ARM.attributes
                0x00000000       0x2f
 .ARM.attributes
                0x00000000       0x31 CMakeFiles/nwy_open_app.dir/nwy_test_demo/nwy_test_cli/comm/nwy_test_cli_utils.obj
 .ARM.attributes
                0x00000031       0x31 CMakeFiles/nwy_open_app.dir/nwy_test_demo/nwy_test_cli/comm/nwy_test_cli_adpt.obj
 .ARM.attributes
                0x00000062       0x31 CMakeFiles/nwy_open_app.dir/nwy_test_demo/odt_vts_application/Peripheral_Driver/driver.obj
 .ARM.attributes
                0x00000093       0x31 CMakeFiles/nwy_open_app.dir/nwy_test_demo/odt_vts_application/Peripheral_Driver/drv_callback.obj
 .ARM.attributes
                0x000000c4       0x31 CMakeFiles/nwy_open_app.dir/nwy_test_demo/odt_vts_application/NET_Application/Network.obj
 .ARM.attributes
                0x000000f5       0x31 CMakeFiles/nwy_open_app.dir/nwy_test_demo/odt_vts_application/VTS_Application/VTS_App.obj
 .ARM.attributes
                0x00000126       0x31 CMakeFiles/nwy_open_app.dir/nwy_test_demo/odt_vts_application/HTTP_Server/http.obj
 .ARM.attributes
                0x00000157       0x31 CMakeFiles/nwy_open_app.dir/nwy_test_demo/odt_vts_application/OTA/ota.obj
 .ARM.attributes
                0x00000188       0x31 CMakeFiles/nwy_open_app.dir/nwy_test_demo/odt_vts_application/SMS/sms.obj
 .ARM.attributes
                0x000001b9       0x31 CMakeFiles/nwy_open_app.dir/nwy_test_demo/odt_vts_application/Flash/flash.obj
 .ARM.attributes
                0x000001ea       0x32 ../build/nwy_open_stub.a(nwy_open.o)
 .ARM.attributes
                0x0000021c       0x3c ../build/nwy_open_stub.a(nwy_open_stub.o)
 .ARM.attributes
                0x00000258       0x29 ../tools/GNU_Arm_Toolchain/arm-none-eabi/lib/thumb/v7/nofp/libc.a(lib_a-atoi.o)
 .ARM.attributes
                0x00000281       0x17 ../tools/GNU_Arm_Toolchain/arm-none-eabi/lib/thumb/v7/nofp/libc.a(lib_a-memcpy.o)
 .ARM.attributes
                0x00000298       0x29 ../tools/GNU_Arm_Toolchain/arm-none-eabi/lib/thumb/v7/nofp/libc.a(lib_a-memset.o)
 .ARM.attributes
                0x000002c1       0x29 ../tools/GNU_Arm_Toolchain/arm-none-eabi/lib/thumb/v7/nofp/libc.a(lib_a-snprintf.o)
 .ARM.attributes
                0x000002ea       0x29 ../tools/GNU_Arm_Toolchain/arm-none-eabi/lib/thumb/v7/nofp/libc.a(lib_a-sprintf.o)
 .ARM.attributes
                0x00000313       0x29 ../tools/GNU_Arm_Toolchain/arm-none-eabi/lib/thumb/v7/nofp/libc.a(lib_a-sscanf.o)
 .ARM.attributes
                0x0000033c       0x29 ../tools/GNU_Arm_Toolchain/arm-none-eabi/lib/thumb/v7/nofp/libc.a(lib_a-stdio.o)
 .ARM.attributes
                0x00000365       0x29 ../tools/GNU_Arm_Toolchain/arm-none-eabi/lib/thumb/v7/nofp/libc.a(lib_a-strcat.o)
 .ARM.attributes
                0x0000038e       0x29 ../tools/GNU_Arm_Toolchain/arm-none-eabi/lib/thumb/v7/nofp/libc.a(lib_a-strchr.o)
 .ARM.attributes
                0x000003b7       0x17 ../tools/GNU_Arm_Toolchain/arm-none-eabi/lib/thumb/v7/nofp/libc.a(lib_a-strcmp.o)
 .ARM.attributes
                0x000003ce       0x29 ../tools/GNU_Arm_Toolchain/arm-none-eabi/lib/thumb/v7/nofp/libc.a(lib_a-strcpy.o)
 .ARM.attributes
                0x000003f7       0x29 ../tools/GNU_Arm_Toolchain/arm-none-eabi/lib/thumb/v7/nofp/libc.a(lib_a-strlen-stub.o)
 .ARM.attributes
                0x00000420       0x29 ../tools/GNU_Arm_Toolchain/arm-none-eabi/lib/thumb/v7/nofp/libc.a(lib_a-strncmp.o)
 .ARM.attributes
                0x00000449       0x29 ../tools/GNU_Arm_Toolchain/arm-none-eabi/lib/thumb/v7/nofp/libc.a(lib_a-strncpy.o)
 .ARM.attributes
                0x00000472       0x29 ../tools/GNU_Arm_Toolchain/arm-none-eabi/lib/thumb/v7/nofp/libc.a(lib_a-strstr.o)
 .ARM.attributes
                0x0000049b       0x29 ../tools/GNU_Arm_Toolchain/arm-none-eabi/lib/thumb/v7/nofp/libc.a(lib_a-strtol.o)
 .ARM.attributes
                0x000004c4       0x29 ../tools/GNU_Arm_Toolchain/arm-none-eabi/lib/thumb/v7/nofp/libc.a(lib_a-svfprintf.o)
 .ARM.attributes
                0x000004ed       0x29 ../tools/GNU_Arm_Toolchain/arm-none-eabi/lib/thumb/v7/nofp/libc.a(lib_a-svfscanf.o)
 .ARM.attributes
                0x00000516       0x29 ../tools/GNU_Arm_Toolchain/arm-none-eabi/lib/thumb/v7/nofp/libc.a(lib_a-vsnprintf.o)
 .ARM.attributes
                0x0000053f       0x29 ../tools/GNU_Arm_Toolchain/arm-none-eabi/lib/thumb/v7/nofp/libc.a(lib_a-writer.o)
 .ARM.attributes
                0x00000568       0x29 ../tools/GNU_Arm_Toolchain/arm-none-eabi/lib/thumb/v7/nofp/libc.a(lib_a-wsetup.o)
 .ARM.attributes
                0x00000591       0x29 ../tools/GNU_Arm_Toolchain/arm-none-eabi/lib/thumb/v7/nofp/libc.a(lib_a-closer.o)
 .ARM.attributes
                0x000005ba       0x29 ../tools/GNU_Arm_Toolchain/arm-none-eabi/lib/thumb/v7/nofp/libc.a(lib_a-ctype_.o)
 .ARM.attributes
                0x000005e3       0x29 ../tools/GNU_Arm_Toolchain/arm-none-eabi/lib/thumb/v7/nofp/libc.a(lib_a-dtoa.o)
 .ARM.attributes
                0x0000060c       0x29 ../tools/GNU_Arm_Toolchain/arm-none-eabi/lib/thumb/v7/nofp/libc.a(lib_a-errno.o)
 .ARM.attributes
                0x00000635       0x29 ../tools/GNU_Arm_Toolchain/arm-none-eabi/lib/thumb/v7/nofp/libc.a(lib_a-fflush.o)
 .ARM.attributes
                0x0000065e       0x29 ../tools/GNU_Arm_Toolchain/arm-none-eabi/lib/thumb/v7/nofp/libc.a(lib_a-findfp.o)
 .ARM.attributes
                0x00000687       0x29 ../tools/GNU_Arm_Toolchain/arm-none-eabi/lib/thumb/v7/nofp/libc.a(lib_a-freer.o)
 .ARM.attributes
                0x000006b0       0x29 ../tools/GNU_Arm_Toolchain/arm-none-eabi/lib/thumb/v7/nofp/libc.a(lib_a-fwalk.o)
 .ARM.attributes
                0x000006d9       0x29 ../tools/GNU_Arm_Toolchain/arm-none-eabi/lib/thumb/v7/nofp/libc.a(lib_a-impure.o)
 .ARM.attributes
                0x00000702       0x29 ../tools/GNU_Arm_Toolchain/arm-none-eabi/lib/thumb/v7/nofp/libc.a(lib_a-iswspace.o)
 .ARM.attributes
                0x0000072b       0x29 ../tools/GNU_Arm_Toolchain/arm-none-eabi/lib/thumb/v7/nofp/libc.a(lib_a-iswspace_l.o)
 .ARM.attributes
                0x00000754       0x29 ../tools/GNU_Arm_Toolchain/arm-none-eabi/lib/thumb/v7/nofp/libc.a(lib_a-locale.o)
 .ARM.attributes
                0x0000077d       0x29 ../tools/GNU_Arm_Toolchain/arm-none-eabi/lib/thumb/v7/nofp/libc.a(lib_a-localeconv.o)
 .ARM.attributes
                0x000007a6       0x29 ../tools/GNU_Arm_Toolchain/arm-none-eabi/lib/thumb/v7/nofp/libc.a(lib_a-lock.o)
 .ARM.attributes
                0x000007cf       0x29 ../tools/GNU_Arm_Toolchain/arm-none-eabi/lib/thumb/v7/nofp/libc.a(lib_a-lseekr.o)
 .ARM.attributes
                0x000007f8       0x29 ../tools/GNU_Arm_Toolchain/arm-none-eabi/lib/thumb/v7/nofp/libc.a(lib_a-makebuf.o)
 .ARM.attributes
                0x00000821       0x29 ../tools/GNU_Arm_Toolchain/arm-none-eabi/lib/thumb/v7/nofp/libc.a(lib_a-mallocr.o)
 .ARM.attributes
                0x0000084a       0x29 ../tools/GNU_Arm_Toolchain/arm-none-eabi/lib/thumb/v7/nofp/libc.a(lib_a-mbrtowc.o)
 .ARM.attributes
                0x00000873       0x29 ../tools/GNU_Arm_Toolchain/arm-none-eabi/lib/thumb/v7/nofp/libc.a(lib_a-mbtowc_r.o)
 .ARM.attributes
                0x0000089c       0x29 ../tools/GNU_Arm_Toolchain/arm-none-eabi/lib/thumb/v7/nofp/libc.a(lib_a-memchr-stub.o)
 .ARM.attributes
                0x000008c5       0x29 ../tools/GNU_Arm_Toolchain/arm-none-eabi/lib/thumb/v7/nofp/libc.a(lib_a-memcmp.o)
 .ARM.attributes
                0x000008ee       0x29 ../tools/GNU_Arm_Toolchain/arm-none-eabi/lib/thumb/v7/nofp/libc.a(lib_a-mlock.o)
 .ARM.attributes
                0x00000917       0x29 ../tools/GNU_Arm_Toolchain/arm-none-eabi/lib/thumb/v7/nofp/libc.a(lib_a-mprec.o)
 .ARM.attributes
                0x00000940       0x29 ../tools/GNU_Arm_Toolchain/arm-none-eabi/lib/thumb/v7/nofp/libc.a(lib_a-readr.o)
 .ARM.attributes
                0x00000969       0x29 ../tools/GNU_Arm_Toolchain/arm-none-eabi/lib/thumb/v7/nofp/libc.a(lib_a-reent.o)
 .ARM.attributes
                0x00000992       0x29 ../tools/GNU_Arm_Toolchain/arm-none-eabi/lib/thumb/v7/nofp/libc.a(lib_a-s_frexp.o)
 .ARM.attributes
                0x000009bb       0x29 ../tools/GNU_Arm_Toolchain/arm-none-eabi/lib/thumb/v7/nofp/libc.a(lib_a-sbrkr.o)
 .ARM.attributes
                0x000009e4       0x29 ../tools/GNU_Arm_Toolchain/arm-none-eabi/lib/thumb/v7/nofp/libc.a(lib_a-sccl.o)
 .ARM.attributes
                0x00000a0d       0x29 ../tools/GNU_Arm_Toolchain/arm-none-eabi/lib/thumb/v7/nofp/libc.a(lib_a-sf_nan.o)
 .ARM.attributes
                0x00000a36       0x29 ../tools/GNU_Arm_Toolchain/arm-none-eabi/lib/thumb/v7/nofp/libc.a(lib_a-strnlen.o)
 .ARM.attributes
                0x00000a5f       0x29 ../tools/GNU_Arm_Toolchain/arm-none-eabi/lib/thumb/v7/nofp/libc.a(lib_a-strtod.o)
 .ARM.attributes
                0x00000a88       0x29 ../tools/GNU_Arm_Toolchain/arm-none-eabi/lib/thumb/v7/nofp/libc.a(lib_a-strtoll.o)
 .ARM.attributes
                0x00000ab1       0x29 ../tools/GNU_Arm_Toolchain/arm-none-eabi/lib/thumb/v7/nofp/libc.a(lib_a-strtoul.o)
 .ARM.attributes
                0x00000ada       0x29 ../tools/GNU_Arm_Toolchain/arm-none-eabi/lib/thumb/v7/nofp/libc.a(lib_a-strtoull.o)
 .ARM.attributes
                0x00000b03       0x29 ../tools/GNU_Arm_Toolchain/arm-none-eabi/lib/thumb/v7/nofp/libc.a(lib_a-svfiprintf.o)
 .ARM.attributes
                0x00000b2c       0x29 ../tools/GNU_Arm_Toolchain/arm-none-eabi/lib/thumb/v7/nofp/libc.a(lib_a-svfiscanf.o)
 .ARM.attributes
                0x00000b55       0x29 ../tools/GNU_Arm_Toolchain/arm-none-eabi/lib/thumb/v7/nofp/libc.a(lib_a-ungetc.o)
 .ARM.attributes
                0x00000b7e       0x29 ../tools/GNU_Arm_Toolchain/arm-none-eabi/lib/thumb/v7/nofp/libc.a(lib_a-vfiprintf.o)
 .ARM.attributes
                0x00000ba7       0x29 ../tools/GNU_Arm_Toolchain/arm-none-eabi/lib/thumb/v7/nofp/libc.a(lib_a-wctomb_r.o)
 .ARM.attributes
                0x00000bd0       0x29 ../tools/GNU_Arm_Toolchain/arm-none-eabi/lib/thumb/v7/nofp/libc.a(lib_a-assert.o)
 .ARM.attributes
                0x00000bf9       0x29 ../tools/GNU_Arm_Toolchain/arm-none-eabi/lib/thumb/v7/nofp/libc.a(lib_a-callocr.o)
 .ARM.attributes
                0x00000c22       0x29 ../tools/GNU_Arm_Toolchain/arm-none-eabi/lib/thumb/v7/nofp/libc.a(lib_a-fclose.o)
 .ARM.attributes
                0x00000c4b       0x29 ../tools/GNU_Arm_Toolchain/arm-none-eabi/lib/thumb/v7/nofp/libc.a(lib_a-fiprintf.o)
 .ARM.attributes
                0x00000c74       0x29 ../tools/GNU_Arm_Toolchain/arm-none-eabi/lib/thumb/v7/nofp/libc.a(lib_a-fputwc.o)
 .ARM.attributes
                0x00000c9d       0x29 ../tools/GNU_Arm_Toolchain/arm-none-eabi/lib/thumb/v7/nofp/libc.a(lib_a-fstatr.o)
 .ARM.attributes
                0x00000cc6       0x29 ../tools/GNU_Arm_Toolchain/arm-none-eabi/lib/thumb/v7/nofp/libc.a(lib_a-fvwrite.o)
 .ARM.attributes
                0x00000cef       0x29 ../tools/GNU_Arm_Toolchain/arm-none-eabi/lib/thumb/v7/nofp/libc.a(lib_a-gdtoa-gethex.o)
 .ARM.attributes
                0x00000d18       0x29 ../tools/GNU_Arm_Toolchain/arm-none-eabi/lib/thumb/v7/nofp/libc.a(lib_a-gdtoa-hexnan.o)
 .ARM.attributes
                0x00000d41       0x29 ../tools/GNU_Arm_Toolchain/arm-none-eabi/lib/thumb/v7/nofp/libc.a(lib_a-isattyr.o)
 .ARM.attributes
                0x00000d6a       0x29 ../tools/GNU_Arm_Toolchain/arm-none-eabi/lib/thumb/v7/nofp/libc.a(lib_a-lnumeric.o)
 .ARM.attributes
                0x00000d93       0x29 ../tools/GNU_Arm_Toolchain/arm-none-eabi/lib/thumb/v7/nofp/libc.a(lib_a-memmove.o)
 .ARM.attributes
                0x00000dbc       0x29 ../tools/GNU_Arm_Toolchain/arm-none-eabi/lib/thumb/v7/nofp/libc.a(lib_a-reallocr.o)
 .ARM.attributes
                0x00000de5       0x29 ../tools/GNU_Arm_Toolchain/arm-none-eabi/lib/thumb/v7/nofp/libc.a(lib_a-s_nan.o)
 .ARM.attributes
                0x00000e0e       0x29 ../tools/GNU_Arm_Toolchain/arm-none-eabi/lib/thumb/v7/nofp/libc.a(lib_a-wbuf.o)
 .ARM.attributes
                0x00000e37       0x29 ../tools/GNU_Arm_Toolchain/arm-none-eabi/lib/thumb/v7/nofp/libc.a(lib_a-wcrtomb.o)
 .ARM.attributes
                0x00000e60       0x29 ../tools/GNU_Arm_Toolchain/arm-none-eabi/lib/thumb/v7/nofp/libc.a(lib_a-abort.o)
 .ARM.attributes
                0x00000e89       0x29 ../tools/GNU_Arm_Toolchain/arm-none-eabi/lib/thumb/v7/nofp/libc.a(lib_a-signal.o)
 .ARM.attributes
                0x00000eb2       0x29 ../tools/GNU_Arm_Toolchain/arm-none-eabi/lib/thumb/v7/nofp/libc.a(lib_a-signalr.o)
 .ARM.attributes
                0x00000edb       0x29 ../tools/GNU_Arm_Toolchain/arm-none-eabi/lib/thumb/v7/nofp/libnosys.a(close.o)
 .ARM.attributes
                0x00000f04       0x29 ../tools/GNU_Arm_Toolchain/arm-none-eabi/lib/thumb/v7/nofp/libnosys.a(fstat.o)
 .ARM.attributes
                0x00000f2d       0x29 ../tools/GNU_Arm_Toolchain/arm-none-eabi/lib/thumb/v7/nofp/libnosys.a(getpid.o)
 .ARM.attributes
                0x00000f56       0x29 ../tools/GNU_Arm_Toolchain/arm-none-eabi/lib/thumb/v7/nofp/libnosys.a(isatty.o)
 .ARM.attributes
                0x00000f7f       0x29 ../tools/GNU_Arm_Toolchain/arm-none-eabi/lib/thumb/v7/nofp/libnosys.a(kill.o)
 .ARM.attributes
                0x00000fa8       0x29 ../tools/GNU_Arm_Toolchain/arm-none-eabi/lib/thumb/v7/nofp/libnosys.a(lseek.o)
 .ARM.attributes
                0x00000fd1       0x29 ../tools/GNU_Arm_Toolchain/arm-none-eabi/lib/thumb/v7/nofp/libnosys.a(read.o)
 .ARM.attributes
                0x00000ffa       0x29 ../tools/GNU_Arm_Toolchain/arm-none-eabi/lib/thumb/v7/nofp/libnosys.a(sbrk.o)
 .ARM.attributes
                0x00001023       0x29 ../tools/GNU_Arm_Toolchain/arm-none-eabi/lib/thumb/v7/nofp/libnosys.a(write.o)
 .ARM.attributes
                0x0000104c       0x29 ../tools/GNU_Arm_Toolchain/arm-none-eabi/lib/thumb/v7/nofp/libnosys.a(_exit.o)
 .ARM.attributes
                0x00001075       0x19 ../tools/GNU_Arm_Toolchain/lib/gcc/arm-none-eabi/10.3.1/thumb/v7/nofp/libgcc.a(_udivsi3.o)
 .ARM.attributes
                0x0000108e       0x19 ../tools/GNU_Arm_Toolchain/lib/gcc/arm-none-eabi/10.3.1/thumb/v7/nofp/libgcc.a(_divsi3.o)
 .ARM.attributes
                0x000010a7       0x19 ../tools/GNU_Arm_Toolchain/lib/gcc/arm-none-eabi/10.3.1/thumb/v7/nofp/libgcc.a(_dvmd_tls.o)
 .ARM.attributes
                0x000010c0       0x19 ../tools/GNU_Arm_Toolchain/lib/gcc/arm-none-eabi/10.3.1/thumb/v7/nofp/libgcc.a(_arm_addsubdf3.o)
 .ARM.attributes
                0x000010d9       0x19 ../tools/GNU_Arm_Toolchain/lib/gcc/arm-none-eabi/10.3.1/thumb/v7/nofp/libgcc.a(_arm_muldivdf3.o)
 .ARM.attributes
                0x000010f2       0x19 ../tools/GNU_Arm_Toolchain/lib/gcc/arm-none-eabi/10.3.1/thumb/v7/nofp/libgcc.a(_arm_cmpdf2.o)
 .ARM.attributes
                0x0000110b       0x19 ../tools/GNU_Arm_Toolchain/lib/gcc/arm-none-eabi/10.3.1/thumb/v7/nofp/libgcc.a(_arm_unorddf2.o)
 .ARM.attributes
                0x00001124       0x19 ../tools/GNU_Arm_Toolchain/lib/gcc/arm-none-eabi/10.3.1/thumb/v7/nofp/libgcc.a(_arm_fixdfsi.o)
 .ARM.attributes
                0x0000113d       0x19 ../tools/GNU_Arm_Toolchain/lib/gcc/arm-none-eabi/10.3.1/thumb/v7/nofp/libgcc.a(_arm_fixunsdfsi.o)
 .ARM.attributes
                0x00001156       0x19 ../tools/GNU_Arm_Toolchain/lib/gcc/arm-none-eabi/10.3.1/thumb/v7/nofp/libgcc.a(_arm_truncdfsf2.o)
 .ARM.attributes
                0x0000116f       0x19 ../tools/GNU_Arm_Toolchain/lib/gcc/arm-none-eabi/10.3.1/thumb/v7/nofp/libgcc.a(_arm_addsubsf3.o)
 .ARM.attributes
                0x00001188       0x19 ../tools/GNU_Arm_Toolchain/lib/gcc/arm-none-eabi/10.3.1/thumb/v7/nofp/libgcc.a(_arm_cmpsf2.o)
 .ARM.attributes
                0x000011a1       0x19 ../tools/GNU_Arm_Toolchain/lib/gcc/arm-none-eabi/10.3.1/thumb/v7/nofp/libgcc.a(_aeabi_uldivmod.o)
 .ARM.attributes
                0x000011ba       0x29 ../tools/GNU_Arm_Toolchain/lib/gcc/arm-none-eabi/10.3.1/thumb/v7/nofp/libgcc.a(_fixdfdi.o)
 .ARM.attributes
                0x000011e3       0x29 ../tools/GNU_Arm_Toolchain/lib/gcc/arm-none-eabi/10.3.1/thumb/v7/nofp/libgcc.a(_fixunsdfdi.o)
 .ARM.attributes
                0x0000120c       0x29 ../tools/GNU_Arm_Toolchain/lib/gcc/arm-none-eabi/10.3.1/thumb/v7/nofp/libgcc.a(_udivmoddi4.o)

.arm_vfe_header
                0x00000000        0x4
 .arm_vfe_header
                0x00000000        0x4 ../build/nwy_open_stub.a(nwy_open_stub.o)

.debug_frame    0x00000000     0x2bb8
 .debug_frame   0x00000000      0x144 CMakeFiles/nwy_open_app.dir/nwy_test_demo/nwy_test_cli/comm/nwy_test_cli_utils.obj
 .debug_frame   0x00000144      0x17c CMakeFiles/nwy_open_app.dir/nwy_test_demo/nwy_test_cli/comm/nwy_test_cli_adpt.obj
 .debug_frame   0x000002c0      0x170 CMakeFiles/nwy_open_app.dir/nwy_test_demo/odt_vts_application/Peripheral_Driver/driver.obj
 .debug_frame   0x00000430       0x74 CMakeFiles/nwy_open_app.dir/nwy_test_demo/odt_vts_application/Peripheral_Driver/drv_callback.obj
 .debug_frame   0x000004a4       0x9c CMakeFiles/nwy_open_app.dir/nwy_test_demo/odt_vts_application/NET_Application/Network.obj
 .debug_frame   0x00000540       0xf0 CMakeFiles/nwy_open_app.dir/nwy_test_demo/odt_vts_application/VTS_Application/VTS_App.obj
 .debug_frame   0x00000630       0xcc CMakeFiles/nwy_open_app.dir/nwy_test_demo/odt_vts_application/HTTP_Server/http.obj
 .debug_frame   0x000006fc       0x7c CMakeFiles/nwy_open_app.dir/nwy_test_demo/odt_vts_application/OTA/ota.obj
 .debug_frame   0x00000778       0x94 CMakeFiles/nwy_open_app.dir/nwy_test_demo/odt_vts_application/SMS/sms.obj
 .debug_frame   0x0000080c       0xe4 CMakeFiles/nwy_open_app.dir/nwy_test_demo/odt_vts_application/Flash/flash.obj
 .debug_frame   0x000008f0       0x42 ../build/nwy_open_stub.a(nwy_open_stub.o)
 .debug_frame   0x00000932       0x4f ../build/nwy_open_stub.a(nwy_open_stub.o)
 .debug_frame   0x00000981       0x57 ../build/nwy_open_stub.a(nwy_open_stub.o)
 .debug_frame   0x000009d8       0x4d ../build/nwy_open_stub.a(nwy_open_stub.o)
 *fill*         0x00000a25        0x3 
 .debug_frame   0x00000a28       0x30 ../tools/GNU_Arm_Toolchain/arm-none-eabi/lib/thumb/v7/nofp/libc.a(lib_a-atoi.o)
 .debug_frame   0x00000a58       0x2c ../tools/GNU_Arm_Toolchain/arm-none-eabi/lib/thumb/v7/nofp/libc.a(lib_a-memset.o)
 .debug_frame   0x00000a84       0x8c ../tools/GNU_Arm_Toolchain/arm-none-eabi/lib/thumb/v7/nofp/libc.a(lib_a-snprintf.o)
 .debug_frame   0x00000b10       0x74 ../tools/GNU_Arm_Toolchain/arm-none-eabi/lib/thumb/v7/nofp/libc.a(lib_a-sprintf.o)
 .debug_frame   0x00000b84       0x80 ../tools/GNU_Arm_Toolchain/arm-none-eabi/lib/thumb/v7/nofp/libc.a(lib_a-sscanf.o)
 .debug_frame   0x00000c04       0x8c ../tools/GNU_Arm_Toolchain/arm-none-eabi/lib/thumb/v7/nofp/libc.a(lib_a-stdio.o)
 .debug_frame   0x00000c90       0x28 ../tools/GNU_Arm_Toolchain/arm-none-eabi/lib/thumb/v7/nofp/libc.a(lib_a-strcat.o)
 .debug_frame   0x00000cb8       0x34 ../tools/GNU_Arm_Toolchain/arm-none-eabi/lib/thumb/v7/nofp/libc.a(lib_a-strchr.o)
 .debug_frame   0x00000cec       0x34 ../tools/GNU_Arm_Toolchain/arm-none-eabi/lib/thumb/v7/nofp/libc.a(lib_a-strcmp.o)
 .debug_frame   0x00000d20       0x20 ../tools/GNU_Arm_Toolchain/arm-none-eabi/lib/thumb/v7/nofp/libc.a(lib_a-strcpy.o)
 .debug_frame   0x00000d40       0x20 ../tools/GNU_Arm_Toolchain/arm-none-eabi/lib/thumb/v7/nofp/libc.a(lib_a-strlen-stub.o)
 .debug_frame   0x00000d60       0x38 ../tools/GNU_Arm_Toolchain/arm-none-eabi/lib/thumb/v7/nofp/libc.a(lib_a-strncmp.o)
 .debug_frame   0x00000d98       0x2c ../tools/GNU_Arm_Toolchain/arm-none-eabi/lib/thumb/v7/nofp/libc.a(lib_a-strncpy.o)
 .debug_frame   0x00000dc4       0x9c ../tools/GNU_Arm_Toolchain/arm-none-eabi/lib/thumb/v7/nofp/libc.a(lib_a-strstr.o)
 .debug_frame   0x00000e60       0x90 ../tools/GNU_Arm_Toolchain/arm-none-eabi/lib/thumb/v7/nofp/libc.a(lib_a-strtol.o)
 .debug_frame   0x00000ef0       0x44 ../tools/GNU_Arm_Toolchain/arm-none-eabi/lib/thumb/v7/nofp/libc.a(lib_a-svfprintf.o)
 .debug_frame   0x00000f34       0x48 ../tools/GNU_Arm_Toolchain/arm-none-eabi/lib/thumb/v7/nofp/libc.a(lib_a-svfscanf.o)
 .debug_frame   0x00000f7c       0x5c ../tools/GNU_Arm_Toolchain/arm-none-eabi/lib/thumb/v7/nofp/libc.a(lib_a-vsnprintf.o)
 .debug_frame   0x00000fd8       0x2c ../tools/GNU_Arm_Toolchain/arm-none-eabi/lib/thumb/v7/nofp/libc.a(lib_a-writer.o)
 .debug_frame   0x00001004       0x2c ../tools/GNU_Arm_Toolchain/arm-none-eabi/lib/thumb/v7/nofp/libc.a(lib_a-wsetup.o)
 .debug_frame   0x00001030       0x2c ../tools/GNU_Arm_Toolchain/arm-none-eabi/lib/thumb/v7/nofp/libc.a(lib_a-closer.o)
 .debug_frame   0x0000105c       0x84 ../tools/GNU_Arm_Toolchain/arm-none-eabi/lib/thumb/v7/nofp/libc.a(lib_a-dtoa.o)
 .debug_frame   0x000010e0       0x20 ../tools/GNU_Arm_Toolchain/arm-none-eabi/lib/thumb/v7/nofp/libc.a(lib_a-errno.o)
 .debug_frame   0x00001100       0x70 ../tools/GNU_Arm_Toolchain/arm-none-eabi/lib/thumb/v7/nofp/libc.a(lib_a-fflush.o)
 .debug_frame   0x00001170      0x154 ../tools/GNU_Arm_Toolchain/arm-none-eabi/lib/thumb/v7/nofp/libc.a(lib_a-findfp.o)
 .debug_frame   0x000012c4       0x8c ../tools/GNU_Arm_Toolchain/arm-none-eabi/lib/thumb/v7/nofp/libc.a(lib_a-freer.o)
 .debug_frame   0x00001350       0x54 ../tools/GNU_Arm_Toolchain/arm-none-eabi/lib/thumb/v7/nofp/libc.a(lib_a-fwalk.o)
 .debug_frame   0x000013a4       0x20 ../tools/GNU_Arm_Toolchain/arm-none-eabi/lib/thumb/v7/nofp/libc.a(lib_a-iswspace.o)
 .debug_frame   0x000013c4       0x20 ../tools/GNU_Arm_Toolchain/arm-none-eabi/lib/thumb/v7/nofp/libc.a(lib_a-iswspace_l.o)
 .debug_frame   0x000013e4       0x68 ../tools/GNU_Arm_Toolchain/arm-none-eabi/lib/thumb/v7/nofp/libc.a(lib_a-locale.o)
 .debug_frame   0x0000144c       0x40 ../tools/GNU_Arm_Toolchain/arm-none-eabi/lib/thumb/v7/nofp/libc.a(lib_a-localeconv.o)
 .debug_frame   0x0000148c       0xb0 ../tools/GNU_Arm_Toolchain/arm-none-eabi/lib/thumb/v7/nofp/libc.a(lib_a-lock.o)
 .debug_frame   0x0000153c       0x2c ../tools/GNU_Arm_Toolchain/arm-none-eabi/lib/thumb/v7/nofp/libc.a(lib_a-lseekr.o)
 .debug_frame   0x00001568       0x70 ../tools/GNU_Arm_Toolchain/arm-none-eabi/lib/thumb/v7/nofp/libc.a(lib_a-makebuf.o)
 .debug_frame   0x000015d8       0x4c ../tools/GNU_Arm_Toolchain/arm-none-eabi/lib/thumb/v7/nofp/libc.a(lib_a-mallocr.o)
 .debug_frame   0x00001624       0x58 ../tools/GNU_Arm_Toolchain/arm-none-eabi/lib/thumb/v7/nofp/libc.a(lib_a-mbrtowc.o)
 .debug_frame   0x0000167c       0x48 ../tools/GNU_Arm_Toolchain/arm-none-eabi/lib/thumb/v7/nofp/libc.a(lib_a-mbtowc_r.o)
 .debug_frame   0x000016c4       0x34 ../tools/GNU_Arm_Toolchain/arm-none-eabi/lib/thumb/v7/nofp/libc.a(lib_a-memchr-stub.o)
 .debug_frame   0x000016f8       0x28 ../tools/GNU_Arm_Toolchain/arm-none-eabi/lib/thumb/v7/nofp/libc.a(lib_a-memcmp.o)
 .debug_frame   0x00001720       0x30 ../tools/GNU_Arm_Toolchain/arm-none-eabi/lib/thumb/v7/nofp/libc.a(lib_a-mlock.o)
 .debug_frame   0x00001750      0x250 ../tools/GNU_Arm_Toolchain/arm-none-eabi/lib/thumb/v7/nofp/libc.a(lib_a-mprec.o)
 .debug_frame   0x000019a0       0x2c ../tools/GNU_Arm_Toolchain/arm-none-eabi/lib/thumb/v7/nofp/libc.a(lib_a-readr.o)
 .debug_frame   0x000019cc       0x64 ../tools/GNU_Arm_Toolchain/arm-none-eabi/lib/thumb/v7/nofp/libc.a(lib_a-reent.o)
 .debug_frame   0x00001a30       0x30 ../tools/GNU_Arm_Toolchain/arm-none-eabi/lib/thumb/v7/nofp/libc.a(lib_a-s_frexp.o)
 .debug_frame   0x00001a60       0x2c ../tools/GNU_Arm_Toolchain/arm-none-eabi/lib/thumb/v7/nofp/libc.a(lib_a-sbrkr.o)
 .debug_frame   0x00001a8c       0x30 ../tools/GNU_Arm_Toolchain/arm-none-eabi/lib/thumb/v7/nofp/libc.a(lib_a-sccl.o)
 .debug_frame   0x00001abc       0x20 ../tools/GNU_Arm_Toolchain/arm-none-eabi/lib/thumb/v7/nofp/libc.a(lib_a-sf_nan.o)
 .debug_frame   0x00001adc       0x20 ../tools/GNU_Arm_Toolchain/arm-none-eabi/lib/thumb/v7/nofp/libc.a(lib_a-strnlen.o)
 .debug_frame   0x00001afc       0xe8 ../tools/GNU_Arm_Toolchain/arm-none-eabi/lib/thumb/v7/nofp/libc.a(lib_a-strtod.o)
 .debug_frame   0x00001be4       0x88 ../tools/GNU_Arm_Toolchain/arm-none-eabi/lib/thumb/v7/nofp/libc.a(lib_a-strtoll.o)
 .debug_frame   0x00001c6c       0x80 ../tools/GNU_Arm_Toolchain/arm-none-eabi/lib/thumb/v7/nofp/libc.a(lib_a-strtoul.o)
 .debug_frame   0x00001cec       0x88 ../tools/GNU_Arm_Toolchain/arm-none-eabi/lib/thumb/v7/nofp/libc.a(lib_a-strtoull.o)
 .debug_frame   0x00001d74       0x7c ../tools/GNU_Arm_Toolchain/arm-none-eabi/lib/thumb/v7/nofp/libc.a(lib_a-svfiprintf.o)
 .debug_frame   0x00001df0       0xb0 ../tools/GNU_Arm_Toolchain/arm-none-eabi/lib/thumb/v7/nofp/libc.a(lib_a-svfiscanf.o)
 .debug_frame   0x00001ea0       0x5c ../tools/GNU_Arm_Toolchain/arm-none-eabi/lib/thumb/v7/nofp/libc.a(lib_a-ungetc.o)
 .debug_frame   0x00001efc       0xdc ../tools/GNU_Arm_Toolchain/arm-none-eabi/lib/thumb/v7/nofp/libc.a(lib_a-vfiprintf.o)
 .debug_frame   0x00001fd8       0x3c ../tools/GNU_Arm_Toolchain/arm-none-eabi/lib/thumb/v7/nofp/libc.a(lib_a-wctomb_r.o)
 .debug_frame   0x00002014       0x40 ../tools/GNU_Arm_Toolchain/arm-none-eabi/lib/thumb/v7/nofp/libc.a(lib_a-assert.o)
 .debug_frame   0x00002054       0x28 ../tools/GNU_Arm_Toolchain/arm-none-eabi/lib/thumb/v7/nofp/libc.a(lib_a-callocr.o)
 .debug_frame   0x0000207c       0x3c ../tools/GNU_Arm_Toolchain/arm-none-eabi/lib/thumb/v7/nofp/libc.a(lib_a-fclose.o)
 .debug_frame   0x000020b8       0x6c ../tools/GNU_Arm_Toolchain/arm-none-eabi/lib/thumb/v7/nofp/libc.a(lib_a-fiprintf.o)
 .debug_frame   0x00002124       0x88 ../tools/GNU_Arm_Toolchain/arm-none-eabi/lib/thumb/v7/nofp/libc.a(lib_a-fputwc.o)
 .debug_frame   0x000021ac       0x2c ../tools/GNU_Arm_Toolchain/arm-none-eabi/lib/thumb/v7/nofp/libc.a(lib_a-fstatr.o)
 .debug_frame   0x000021d8       0x64 ../tools/GNU_Arm_Toolchain/arm-none-eabi/lib/thumb/v7/nofp/libc.a(lib_a-fvwrite.o)
 .debug_frame   0x0000223c       0x6c ../tools/GNU_Arm_Toolchain/arm-none-eabi/lib/thumb/v7/nofp/libc.a(lib_a-gdtoa-gethex.o)
 .debug_frame   0x000022a8       0x64 ../tools/GNU_Arm_Toolchain/arm-none-eabi/lib/thumb/v7/nofp/libc.a(lib_a-gdtoa-hexnan.o)
 .debug_frame   0x0000230c       0x2c ../tools/GNU_Arm_Toolchain/arm-none-eabi/lib/thumb/v7/nofp/libc.a(lib_a-isattyr.o)
 .debug_frame   0x00002338       0x20 ../tools/GNU_Arm_Toolchain/arm-none-eabi/lib/thumb/v7/nofp/libc.a(lib_a-lnumeric.o)
 .debug_frame   0x00002358       0x34 ../tools/GNU_Arm_Toolchain/arm-none-eabi/lib/thumb/v7/nofp/libc.a(lib_a-memmove.o)
 .debug_frame   0x0000238c       0x60 ../tools/GNU_Arm_Toolchain/arm-none-eabi/lib/thumb/v7/nofp/libc.a(lib_a-reallocr.o)
 .debug_frame   0x000023ec       0x20 ../tools/GNU_Arm_Toolchain/arm-none-eabi/lib/thumb/v7/nofp/libc.a(lib_a-s_nan.o)
 .debug_frame   0x0000240c       0x40 ../tools/GNU_Arm_Toolchain/arm-none-eabi/lib/thumb/v7/nofp/libc.a(lib_a-wbuf.o)
 .debug_frame   0x0000244c       0x58 ../tools/GNU_Arm_Toolchain/arm-none-eabi/lib/thumb/v7/nofp/libc.a(lib_a-wcrtomb.o)
 .debug_frame   0x000024a4       0x28 ../tools/GNU_Arm_Toolchain/arm-none-eabi/lib/thumb/v7/nofp/libc.a(lib_a-abort.o)
 .debug_frame   0x000024cc      0x10c ../tools/GNU_Arm_Toolchain/arm-none-eabi/lib/thumb/v7/nofp/libc.a(lib_a-signal.o)
 .debug_frame   0x000025d8       0x3c ../tools/GNU_Arm_Toolchain/arm-none-eabi/lib/thumb/v7/nofp/libc.a(lib_a-signalr.o)
 .debug_frame   0x00002614       0x20 ../tools/GNU_Arm_Toolchain/arm-none-eabi/lib/thumb/v7/nofp/libnosys.a(close.o)
 .debug_frame   0x00002634       0x20 ../tools/GNU_Arm_Toolchain/arm-none-eabi/lib/thumb/v7/nofp/libnosys.a(fstat.o)
 .debug_frame   0x00002654       0x20 ../tools/GNU_Arm_Toolchain/arm-none-eabi/lib/thumb/v7/nofp/libnosys.a(getpid.o)
 .debug_frame   0x00002674       0x20 ../tools/GNU_Arm_Toolchain/arm-none-eabi/lib/thumb/v7/nofp/libnosys.a(isatty.o)
 .debug_frame   0x00002694       0x20 ../tools/GNU_Arm_Toolchain/arm-none-eabi/lib/thumb/v7/nofp/libnosys.a(kill.o)
 .debug_frame   0x000026b4       0x20 ../tools/GNU_Arm_Toolchain/arm-none-eabi/lib/thumb/v7/nofp/libnosys.a(lseek.o)
 .debug_frame   0x000026d4       0x20 ../tools/GNU_Arm_Toolchain/arm-none-eabi/lib/thumb/v7/nofp/libnosys.a(read.o)
 .debug_frame   0x000026f4       0x20 ../tools/GNU_Arm_Toolchain/arm-none-eabi/lib/thumb/v7/nofp/libnosys.a(sbrk.o)
 .debug_frame   0x00002714       0x20 ../tools/GNU_Arm_Toolchain/arm-none-eabi/lib/thumb/v7/nofp/libnosys.a(write.o)
 .debug_frame   0x00002734       0x20 ../tools/GNU_Arm_Toolchain/arm-none-eabi/lib/thumb/v7/nofp/libnosys.a(_exit.o)
 .debug_frame   0x00002754       0x20 ../tools/GNU_Arm_Toolchain/lib/gcc/arm-none-eabi/10.3.1/thumb/v7/nofp/libgcc.a(_udivsi3.o)
 .debug_frame   0x00002774       0x20 ../tools/GNU_Arm_Toolchain/lib/gcc/arm-none-eabi/10.3.1/thumb/v7/nofp/libgcc.a(_divsi3.o)
 .debug_frame   0x00002794       0xac ../tools/GNU_Arm_Toolchain/lib/gcc/arm-none-eabi/10.3.1/thumb/v7/nofp/libgcc.a(_arm_addsubdf3.o)
 .debug_frame   0x00002840       0x50 ../tools/GNU_Arm_Toolchain/lib/gcc/arm-none-eabi/10.3.1/thumb/v7/nofp/libgcc.a(_arm_muldivdf3.o)
 .debug_frame   0x00002890       0xc4 ../tools/GNU_Arm_Toolchain/lib/gcc/arm-none-eabi/10.3.1/thumb/v7/nofp/libgcc.a(_arm_cmpdf2.o)
 .debug_frame   0x00002954       0x20 ../tools/GNU_Arm_Toolchain/lib/gcc/arm-none-eabi/10.3.1/thumb/v7/nofp/libgcc.a(_arm_unorddf2.o)
 .debug_frame   0x00002974       0x24 ../tools/GNU_Arm_Toolchain/lib/gcc/arm-none-eabi/10.3.1/thumb/v7/nofp/libgcc.a(_arm_fixdfsi.o)
 .debug_frame   0x00002998       0x24 ../tools/GNU_Arm_Toolchain/lib/gcc/arm-none-eabi/10.3.1/thumb/v7/nofp/libgcc.a(_arm_fixunsdfsi.o)
 .debug_frame   0x000029bc       0x24 ../tools/GNU_Arm_Toolchain/lib/gcc/arm-none-eabi/10.3.1/thumb/v7/nofp/libgcc.a(_arm_truncdfsf2.o)
 .debug_frame   0x000029e0       0x4c ../tools/GNU_Arm_Toolchain/lib/gcc/arm-none-eabi/10.3.1/thumb/v7/nofp/libgcc.a(_arm_addsubsf3.o)
 .debug_frame   0x00002a2c       0xc8 ../tools/GNU_Arm_Toolchain/lib/gcc/arm-none-eabi/10.3.1/thumb/v7/nofp/libgcc.a(_arm_cmpsf2.o)
 .debug_frame   0x00002af4       0x2c ../tools/GNU_Arm_Toolchain/lib/gcc/arm-none-eabi/10.3.1/thumb/v7/nofp/libgcc.a(_aeabi_uldivmod.o)
 .debug_frame   0x00002b20       0x38 ../tools/GNU_Arm_Toolchain/lib/gcc/arm-none-eabi/10.3.1/thumb/v7/nofp/libgcc.a(_fixdfdi.o)
 .debug_frame   0x00002b58       0x2c ../tools/GNU_Arm_Toolchain/lib/gcc/arm-none-eabi/10.3.1/thumb/v7/nofp/libgcc.a(_fixunsdfdi.o)
 .debug_frame   0x00002b84       0x34 ../tools/GNU_Arm_Toolchain/lib/gcc/arm-none-eabi/10.3.1/thumb/v7/nofp/libgcc.a(_udivmoddi4.o)

.debug_info$$$nwy_open_asm
                0x00000000       0xa6
 .debug_info$$$nwy_open_asm
                0x00000000       0xa6 ../build/nwy_open_stub.a(nwy_open.o)

.debug_line$$$nwy_open_asm
                0x00000000      0xc65
 .debug_line$$$nwy_open_asm
                0x00000000      0xc65 ../build/nwy_open_stub.a(nwy_open.o)

.debug_macinfo  0x00000000      0x7da
 .debug_macinfo
                0x00000000       0x91 ../build/nwy_open_stub.a(nwy_open_stub.o)
 .debug_macinfo
                0x00000091      0x13b ../build/nwy_open_stub.a(nwy_open_stub.o)
 .debug_macinfo
                0x000001cc      0x227 ../build/nwy_open_stub.a(nwy_open_stub.o)
 .debug_macinfo
                0x000003f3      0x3e7 ../build/nwy_open_stub.a(nwy_open_stub.o)

.debug_pubnames
                0x00000000     0x2a97
 .debug_pubnames
                0x00000000       0x6e ../build/nwy_open_stub.a(nwy_open_stub.o)
 .debug_pubnames
                0x0000006e     0x2a29 ../build/nwy_open_stub.a(nwy_open_stub.o)

.stab           0x00000000       0xcc
 .stab          0x00000000       0x24 ../tools/GNU_Arm_Toolchain/arm-none-eabi/lib/thumb/v7/nofp/libnosys.a(close.o)
 .stab          0x00000024       0x18 ../tools/GNU_Arm_Toolchain/arm-none-eabi/lib/thumb/v7/nofp/libnosys.a(fstat.o)
                                 0x24 (size before relaxing)
 .stab          0x0000003c       0x18 ../tools/GNU_Arm_Toolchain/arm-none-eabi/lib/thumb/v7/nofp/libnosys.a(getpid.o)
                                 0x24 (size before relaxing)
 .stab          0x00000054       0x18 ../tools/GNU_Arm_Toolchain/arm-none-eabi/lib/thumb/v7/nofp/libnosys.a(isatty.o)
                                 0x24 (size before relaxing)
 .stab          0x0000006c       0x18 ../tools/GNU_Arm_Toolchain/arm-none-eabi/lib/thumb/v7/nofp/libnosys.a(kill.o)
                                 0x24 (size before relaxing)
 .stab          0x00000084       0x18 ../tools/GNU_Arm_Toolchain/arm-none-eabi/lib/thumb/v7/nofp/libnosys.a(lseek.o)
                                 0x24 (size before relaxing)
 .stab          0x0000009c       0x18 ../tools/GNU_Arm_Toolchain/arm-none-eabi/lib/thumb/v7/nofp/libnosys.a(read.o)
                                 0x24 (size before relaxing)
 .stab          0x000000b4       0x18 ../tools/GNU_Arm_Toolchain/arm-none-eabi/lib/thumb/v7/nofp/libnosys.a(write.o)
                                 0x24 (size before relaxing)

.stabstr        0x00000000      0x1b9
 .stabstr       0x00000000      0x1b9 ../tools/GNU_Arm_Toolchain/arm-none-eabi/lib/thumb/v7/nofp/libnosys.a(close.o)
